

Microchip MPLAB XC8 Assembler V2.45 build 20230818022343 
                                                                                               Sat Oct 07 20:35:17 2023

Microchip MPLAB XC8 C Compiler v2.45 (Free license) build 20230818022343 Og1 
     1                           	processor	16F877A
     2                           	pagewidth 120
     3                           	opt	flic
     4                           	psect	idataCOMMON,global,class=CODE,delta=2,noexec
     5                           	psect	idataBANK0,global,class=CODE,delta=2,noexec
     6                           	psect	strings,global,class=STRING,delta=2,noexec
     7                           	psect	cinit,global,class=CODE,merge=1,delta=2
     8                           	psect	dataCOMMON,global,class=COMMON,space=1,delta=1,noexec
     9                           	psect	bssBANK0,global,class=BANK0,space=1,delta=1,noexec
    10                           	psect	dataBANK0,global,class=BANK0,space=1,delta=1,noexec
    11                           	psect	cstackCOMMON,global,class=COMMON,space=1,delta=1,noexec
    12                           	psect	cstackBANK0,global,class=BANK0,space=1,delta=1,noexec
    13                           	psect	maintext,global,class=CODE,split=1,delta=2
    14                           	psect	text1,local,class=CODE,merge=1,delta=2
    15                           	psect	text2,local,class=CODE,merge=1,delta=2
    16                           	psect	text3,local,class=CODE,merge=1,delta=2
    17                           	psect	text4,local,class=CODE,merge=1,delta=2
    18                           	psect	text5,local,class=CODE,merge=1,delta=2,group=1
    19                           	psect	text6,local,class=CODE,merge=1,delta=2,group=1
    20                           	psect	text7,local,class=CODE,merge=1,delta=2,group=1
    21                           	psect	text8,local,class=CODE,merge=1,delta=2
    22                           	psect	text9,local,class=CODE,merge=1,delta=2
    23                           	psect	text10,local,class=CODE,merge=1,delta=2
    24                           	psect	text11,local,class=CODE,merge=1,delta=2
    25                           	psect	text12,local,class=CODE,merge=1,delta=2
    26                           	psect	text13,local,class=CODE,merge=1,delta=2
    27                           	psect	text14,local,class=CODE,merge=1,delta=2
    28                           	psect	text15,local,class=CODE,merge=1,delta=2
    29                           	psect	text16,local,class=CODE,merge=1,delta=2
    30                           	psect	text17,local,class=CODE,merge=1,delta=2
    31                           	psect	text18,local,class=CODE,merge=1,delta=2
    32                           	psect	text19,local,class=CODE,merge=1,delta=2
    33                           	psect	text20,local,class=CODE,merge=1,delta=2
    34                           	psect	intentry,global,class=CODE,delta=2
    35                           	psect	config,global,abs,ovrld,class=CONFIG,space=4,delta=2,noexec
    36                           	dabs	1,0x7E,2
    37     0000                     
    38                           ; Generated 22/03/2023 GMT
    39                           ; 
    40                           ; Copyright © 2023, Microchip Technology Inc. and its subsidiaries ("Microchip")
    41                           ; All rights reserved.
    42                           ; 
    43                           ; This software is developed by Microchip Technology Inc. and its subsidiaries ("Microch
      +                          ip").
    44                           ; 
    45                           ; Redistribution and use in source and binary forms, with or without modification, are
    46                           ; permitted provided that the following conditions are met:
    47                           ; 
    48                           ;     1. Redistributions of source code must retain the above copyright notice, this lis
      +                          t of
    49                           ;        conditions and the following disclaimer.
    50                           ; 
    51                           ;     2. Redistributions in binary form must reproduce the above copyright notice, this 
      +                          list
    52                           ;        of conditions and the following disclaimer in the documentation and/or other
    53                           ;        materials provided with the distribution. Publication is not required when
    54                           ;        this file is used in an embedded application.
    55                           ; 
    56                           ;     3. Microchip's name may not be used to endorse or promote products derived from th
      +                          is
    57                           ;        software without specific prior written permission.
    58                           ; 
    59                           ; THIS SOFTWARE IS PROVIDED BY MICROCHIP "AS IS" AND ANY EXPRESS OR IMPLIED WARRANTIES,
    60                           ; INCLUDING, BUT NOT LIMITED TO, THE IMPLIED WARRANTIES OF MERCHANTABILITY AND FITNESS F
      +                          OR
    61                           ; PURPOSE ARE DISCLAIMED.  IN NO EVENT SHALL MICROCHIP BE LIABLE FOR ANY DIRECT, INDIREC
      +                          T,
    62                           ; INCIDENTAL, SPECIAL, EXEMPLARY, OR CONSEQUENTIAL DAMAGES (INCLUDING BUT NOT LIMITED TO
    63                           ; PROCUREMENT OF SUBSTITUTE GOODS OR SERVICES; LOSS OF USE, DATA OR PROFITS; OR BUSINESS
    64                           ; INTERRUPTION) HOWSOEVER CAUSED AND ON ANY THEORY OF LIABILITY, WHETHER IN CONTRACT, ST
      +                          RICT
    65                           ; LIABILITY, OR TORT (INCLUDING NEGLIGENCE OR OTHERWISE) ARISING IN ANY WAY OUT OF THE U
      +                          SE OF
    66                           ; THIS SOFTWARE, EVEN IF ADVISED OF THE POSSIBILITY OF SUCH DAMAGE.
    67                           ; 
    68                           ; 
    69                           ; Code-generator required, PIC16F877A Definitions
    70                           ; 
    71                           ; SFR Addresses
    72     0000                     	;# 
    73     0001                     	;# 
    74     0002                     	;# 
    75     0003                     	;# 
    76     0004                     	;# 
    77     0005                     	;# 
    78     0006                     	;# 
    79     0007                     	;# 
    80     0008                     	;# 
    81     0009                     	;# 
    82     000A                     	;# 
    83     000B                     	;# 
    84     000C                     	;# 
    85     000D                     	;# 
    86     000E                     	;# 
    87     000E                     	;# 
    88     000F                     	;# 
    89     0010                     	;# 
    90     0011                     	;# 
    91     0012                     	;# 
    92     0013                     	;# 
    93     0014                     	;# 
    94     0015                     	;# 
    95     0015                     	;# 
    96     0016                     	;# 
    97     0017                     	;# 
    98     0018                     	;# 
    99     0019                     	;# 
   100     001A                     	;# 
   101     001B                     	;# 
   102     001B                     	;# 
   103     001C                     	;# 
   104     001D                     	;# 
   105     001E                     	;# 
   106     001F                     	;# 
   107     0081                     	;# 
   108     0085                     	;# 
   109     0086                     	;# 
   110     0087                     	;# 
   111     0088                     	;# 
   112     0089                     	;# 
   113     008C                     	;# 
   114     008D                     	;# 
   115     008E                     	;# 
   116     0091                     	;# 
   117     0092                     	;# 
   118     0093                     	;# 
   119     0094                     	;# 
   120     0098                     	;# 
   121     0099                     	;# 
   122     009C                     	;# 
   123     009D                     	;# 
   124     009E                     	;# 
   125     009F                     	;# 
   126     010C                     	;# 
   127     010D                     	;# 
   128     010E                     	;# 
   129     010F                     	;# 
   130     018C                     	;# 
   131     018D                     	;# 
   132     0000                     	;# 
   133     0001                     	;# 
   134     0002                     	;# 
   135     0003                     	;# 
   136     0004                     	;# 
   137     0005                     	;# 
   138     0006                     	;# 
   139     0007                     	;# 
   140     0008                     	;# 
   141     0009                     	;# 
   142     000A                     	;# 
   143     000B                     	;# 
   144     000C                     	;# 
   145     000D                     	;# 
   146     000E                     	;# 
   147     000E                     	;# 
   148     000F                     	;# 
   149     0010                     	;# 
   150     0011                     	;# 
   151     0012                     	;# 
   152     0013                     	;# 
   153     0014                     	;# 
   154     0015                     	;# 
   155     0015                     	;# 
   156     0016                     	;# 
   157     0017                     	;# 
   158     0018                     	;# 
   159     0019                     	;# 
   160     001A                     	;# 
   161     001B                     	;# 
   162     001B                     	;# 
   163     001C                     	;# 
   164     001D                     	;# 
   165     001E                     	;# 
   166     001F                     	;# 
   167     0081                     	;# 
   168     0085                     	;# 
   169     0086                     	;# 
   170     0087                     	;# 
   171     0088                     	;# 
   172     0089                     	;# 
   173     008C                     	;# 
   174     008D                     	;# 
   175     008E                     	;# 
   176     0091                     	;# 
   177     0092                     	;# 
   178     0093                     	;# 
   179     0094                     	;# 
   180     0098                     	;# 
   181     0099                     	;# 
   182     009C                     	;# 
   183     009D                     	;# 
   184     009E                     	;# 
   185     009F                     	;# 
   186     010C                     	;# 
   187     010D                     	;# 
   188     010E                     	;# 
   189     010F                     	;# 
   190     018C                     	;# 
   191     018D                     	;# 
   192     0000                     	;# 
   193     0001                     	;# 
   194     0002                     	;# 
   195     0003                     	;# 
   196     0004                     	;# 
   197     0005                     	;# 
   198     0006                     	;# 
   199     0007                     	;# 
   200     0008                     	;# 
   201     0009                     	;# 
   202     000A                     	;# 
   203     000B                     	;# 
   204     000C                     	;# 
   205     000D                     	;# 
   206     000E                     	;# 
   207     000E                     	;# 
   208     000F                     	;# 
   209     0010                     	;# 
   210     0011                     	;# 
   211     0012                     	;# 
   212     0013                     	;# 
   213     0014                     	;# 
   214     0015                     	;# 
   215     0015                     	;# 
   216     0016                     	;# 
   217     0017                     	;# 
   218     0018                     	;# 
   219     0019                     	;# 
   220     001A                     	;# 
   221     001B                     	;# 
   222     001B                     	;# 
   223     001C                     	;# 
   224     001D                     	;# 
   225     001E                     	;# 
   226     001F                     	;# 
   227     0081                     	;# 
   228     0085                     	;# 
   229     0086                     	;# 
   230     0087                     	;# 
   231     0088                     	;# 
   232     0089                     	;# 
   233     008C                     	;# 
   234     008D                     	;# 
   235     008E                     	;# 
   236     0091                     	;# 
   237     0092                     	;# 
   238     0093                     	;# 
   239     0094                     	;# 
   240     0098                     	;# 
   241     0099                     	;# 
   242     009C                     	;# 
   243     009D                     	;# 
   244     009E                     	;# 
   245     009F                     	;# 
   246     010C                     	;# 
   247     010D                     	;# 
   248     010E                     	;# 
   249     010F                     	;# 
   250     018C                     	;# 
   251     018D                     	;# 
   252     0000                     	;# 
   253     0001                     	;# 
   254     0002                     	;# 
   255     0003                     	;# 
   256     0004                     	;# 
   257     0005                     	;# 
   258     0006                     	;# 
   259     0007                     	;# 
   260     0008                     	;# 
   261     0009                     	;# 
   262     000A                     	;# 
   263     000B                     	;# 
   264     000C                     	;# 
   265     000D                     	;# 
   266     000E                     	;# 
   267     000E                     	;# 
   268     000F                     	;# 
   269     0010                     	;# 
   270     0011                     	;# 
   271     0012                     	;# 
   272     0013                     	;# 
   273     0014                     	;# 
   274     0015                     	;# 
   275     0015                     	;# 
   276     0016                     	;# 
   277     0017                     	;# 
   278     0018                     	;# 
   279     0019                     	;# 
   280     001A                     	;# 
   281     001B                     	;# 
   282     001B                     	;# 
   283     001C                     	;# 
   284     001D                     	;# 
   285     001E                     	;# 
   286     001F                     	;# 
   287     0081                     	;# 
   288     0085                     	;# 
   289     0086                     	;# 
   290     0087                     	;# 
   291     0088                     	;# 
   292     0089                     	;# 
   293     008C                     	;# 
   294     008D                     	;# 
   295     008E                     	;# 
   296     0091                     	;# 
   297     0092                     	;# 
   298     0093                     	;# 
   299     0094                     	;# 
   300     0098                     	;# 
   301     0099                     	;# 
   302     009C                     	;# 
   303     009D                     	;# 
   304     009E                     	;# 
   305     009F                     	;# 
   306     010C                     	;# 
   307     010D                     	;# 
   308     010E                     	;# 
   309     010F                     	;# 
   310     018C                     	;# 
   311     018D                     	;# 
   312     0000                     	;# 
   313     0001                     	;# 
   314     0002                     	;# 
   315     0003                     	;# 
   316     0004                     	;# 
   317     0005                     	;# 
   318     0006                     	;# 
   319     0007                     	;# 
   320     0008                     	;# 
   321     0009                     	;# 
   322     000A                     	;# 
   323     000B                     	;# 
   324     000C                     	;# 
   325     000D                     	;# 
   326     000E                     	;# 
   327     000E                     	;# 
   328     000F                     	;# 
   329     0010                     	;# 
   330     0011                     	;# 
   331     0012                     	;# 
   332     0013                     	;# 
   333     0014                     	;# 
   334     0015                     	;# 
   335     0015                     	;# 
   336     0016                     	;# 
   337     0017                     	;# 
   338     0018                     	;# 
   339     0019                     	;# 
   340     001A                     	;# 
   341     001B                     	;# 
   342     001B                     	;# 
   343     001C                     	;# 
   344     001D                     	;# 
   345     001E                     	;# 
   346     001F                     	;# 
   347     0081                     	;# 
   348     0085                     	;# 
   349     0086                     	;# 
   350     0087                     	;# 
   351     0088                     	;# 
   352     0089                     	;# 
   353     008C                     	;# 
   354     008D                     	;# 
   355     008E                     	;# 
   356     0091                     	;# 
   357     0092                     	;# 
   358     0093                     	;# 
   359     0094                     	;# 
   360     0098                     	;# 
   361     0099                     	;# 
   362     009C                     	;# 
   363     009D                     	;# 
   364     009E                     	;# 
   365     009F                     	;# 
   366     010C                     	;# 
   367     010D                     	;# 
   368     010E                     	;# 
   369     010F                     	;# 
   370     018C                     	;# 
   371     018D                     	;# 
   372     0000                     	;# 
   373     0001                     	;# 
   374     0002                     	;# 
   375     0003                     	;# 
   376     0004                     	;# 
   377     0005                     	;# 
   378     0006                     	;# 
   379     0007                     	;# 
   380     0008                     	;# 
   381     0009                     	;# 
   382     000A                     	;# 
   383     000B                     	;# 
   384     000C                     	;# 
   385     000D                     	;# 
   386     000E                     	;# 
   387     000E                     	;# 
   388     000F                     	;# 
   389     0010                     	;# 
   390     0011                     	;# 
   391     0012                     	;# 
   392     0013                     	;# 
   393     0014                     	;# 
   394     0015                     	;# 
   395     0015                     	;# 
   396     0016                     	;# 
   397     0017                     	;# 
   398     0018                     	;# 
   399     0019                     	;# 
   400     001A                     	;# 
   401     001B                     	;# 
   402     001B                     	;# 
   403     001C                     	;# 
   404     001D                     	;# 
   405     001E                     	;# 
   406     001F                     	;# 
   407     0081                     	;# 
   408     0085                     	;# 
   409     0086                     	;# 
   410     0087                     	;# 
   411     0088                     	;# 
   412     0089                     	;# 
   413     008C                     	;# 
   414     008D                     	;# 
   415     008E                     	;# 
   416     0091                     	;# 
   417     0092                     	;# 
   418     0093                     	;# 
   419     0094                     	;# 
   420     0098                     	;# 
   421     0099                     	;# 
   422     009C                     	;# 
   423     009D                     	;# 
   424     009E                     	;# 
   425     009F                     	;# 
   426     010C                     	;# 
   427     010D                     	;# 
   428     010E                     	;# 
   429     010F                     	;# 
   430     018C                     	;# 
   431     018D                     	;# 
   432                           
   433                           	psect	idataCOMMON
   434     07FE                     __pidataCOMMON:
   435                           
   436                           ;initializer for read_matrix_keypad@once
   437     07FE  3401               	retlw	1
   438                           
   439                           	psect	idataBANK0
   440     07FC                     __pidataBANK0:
   441                           
   442                           ;initializer for _operation_flag
   443     07FC  3401               	retlw	1
   444     07FD  3400               	retlw	0
   445     0008                     _PORTD	set	8
   446     0091                     _T2CKPS1	set	145
   447     0090                     _T2CKPS0	set	144
   448     0061                     _TMR2IF	set	97
   449     0032                     _RB2	set	50
   450     0031                     _RB1	set	49
   451     0030                     _RB0	set	48
   452     0040                     _RD0	set	64
   453     0041                     _RD1	set	65
   454     0042                     _RD2	set	66
   455     0043                     _RD3	set	67
   456     0049                     _RE1	set	73
   457     004A                     _RE2	set	74
   458     0092                     _TMR2ON	set	146
   459     005F                     _GIE	set	95
   460     005E                     _PEIE	set	94
   461     0039                     _RC1	set	57
   462     003A                     _RC2	set	58
   463     0092                     _PR2	set	146
   464     0086                     _TRISB	set	134
   465     0088                     _TRISD	set	136
   466     0461                     _TMR2IE	set	1121
   467     040F                     _nRBPU	set	1039
   468     0449                     _TRISE1	set	1097
   469     044A                     _TRISE2	set	1098
   470     0439                     _TRISC1	set	1081
   471     043A                     _TRISC2	set	1082
   472                           
   473                           	psect	strings
   474     0500                     __pstrings:
   475     0500                     stringtab:
   476     0500                     __stringtab:
   477     0500                     stringcode:	
   478                           ;	String table - string pointers are 1 byte each
   479                           
   480     0500                     stringdir:
   481     0500  3005               	movlw	high stringdir
   482     0501  008A               	movwf	10
   483     0502  0804               	movf	4,w
   484     0503  0A84               	incf	4,f
   485     0504  0782               	addwf	2,f
   486     0505                     __stringbase:
   487     0505  3400               	retlw	0
   488     0506                     __end_of__stringtab:
   489     0506                     STR_7:
   490     0506  3420               	retlw	32	;' '
   491     0507  3420               	retlw	32	;' '
   492     0508  3450               	retlw	80	;'P'
   493     0509  346F               	retlw	111	;'o'
   494     050A  3477               	retlw	119	;'w'
   495     050B  3465               	retlw	101	;'e'
   496     050C  3472               	retlw	114	;'r'
   497     050D  3469               	retlw	105	;'i'
   498     050E  346E               	retlw	110	;'n'
   499     050F  3467               	retlw	103	;'g'
   500     0510  3420               	retlw	32	;' '
   501     0511  344F               	retlw	79	;'O'
   502     0512  344E               	retlw	78	;'N'
   503     0513  3420               	retlw	32	;' '
   504     0514  3420               	retlw	32	;' '
   505     0515  3420               	retlw	32	;' '
   506     0516  3400               	retlw	0
   507     0517                     STR_8:
   508     0517  3420               	retlw	32	;' '
   509     0518  344D               	retlw	77	;'M'
   510     0519  3469               	retlw	105	;'i'
   511     051A  3463               	retlw	99	;'c'
   512     051B  3472               	retlw	114	;'r'
   513     051C  346F               	retlw	111	;'o'
   514     051D  3477               	retlw	119	;'w'
   515     051E  3461               	retlw	97	;'a'
   516     051F  3476               	retlw	118	;'v'
   517     0520  3465               	retlw	101	;'e'
   518     0521  3420               	retlw	32	;' '
   519     0522  344F               	retlw	79	;'O'
   520     0523  3476               	retlw	118	;'v'
   521     0524  3465               	retlw	101	;'e'
   522     0525  346E               	retlw	110	;'n'
   523     0526  3420               	retlw	32	;' '
   524     0527  3400               	retlw	0
   525     0528                     STR_19:
   526     0528  3453               	retlw	83	;'S'
   527     0529  3445               	retlw	69	;'E'
   528     052A  3454               	retlw	84	;'T'
   529     052B  3420               	retlw	32	;' '
   530     052C  3454               	retlw	84	;'T'
   531     052D  3449               	retlw	73	;'I'
   532     052E  344D               	retlw	77	;'M'
   533     052F  3445               	retlw	69	;'E'
   534     0530  3420               	retlw	32	;' '
   535     0531  3428               	retlw	40	;'('
   536     0532  344D               	retlw	77	;'M'
   537     0533  344D               	retlw	77	;'M'
   538     0534  343A               	retlw	58	;':'
   539     0535  3453               	retlw	83	;'S'
   540     0536  3453               	retlw	83	;'S'
   541     0537  3429               	retlw	41	;')'
   542     0538  3400               	retlw	0
   543     0539                     STR_15:
   544     0539  342A               	retlw	42	;'*'
   545     053A  343A               	retlw	58	;':'
   546     053B  3443               	retlw	67	;'C'
   547     053C  344C               	retlw	76	;'L'
   548     053D  3445               	retlw	69	;'E'
   549     053E  3441               	retlw	65	;'A'
   550     053F  3452               	retlw	82	;'R'
   551     0540  3420               	retlw	32	;' '
   552     0541  3420               	retlw	32	;' '
   553     0542  3423               	retlw	35	;'#'
   554     0543  343A               	retlw	58	;':'
   555     0544  3445               	retlw	69	;'E'
   556     0545  344E               	retlw	78	;'N'
   557     0546  3454               	retlw	84	;'T'
   558     0547  3445               	retlw	69	;'E'
   559     0548  3452               	retlw	82	;'R'
   560     0549  3400               	retlw	0
   561     054A                     STR_1:
   562     054A  3420               	retlw	32	;' '
   563     054B  3470               	retlw	112	;'p'
   564     054C  346F               	retlw	111	;'o'
   565     054D  3477               	retlw	119	;'w'
   566     054E  3465               	retlw	101	;'e'
   567     054F  3472               	retlw	114	;'r'
   568     0550  3420               	retlw	32	;' '
   569     0551  343D               	retlw	61	;'='
   570     0552  3420               	retlw	32	;' '
   571     0553  3439               	retlw	57	;'9'
   572     0554  3430               	retlw	48	;'0'
   573     0555  3430               	retlw	48	;'0'
   574     0556  3477               	retlw	119	;'w'
   575     0557  3420               	retlw	32	;' '
   576     0558  3420               	retlw	32	;' '
   577     0559  3400               	retlw	0
   578     055A                     STR_3:
   579     055A  3420               	retlw	32	;' '
   580     055B  3434               	retlw	52	;'4'
   581     055C  342E               	retlw	46	;'.'
   582     055D  3453               	retlw	83	;'S'
   583     055E  3474               	retlw	116	;'t'
   584     055F  3461               	retlw	97	;'a'
   585     0560  3472               	retlw	114	;'r'
   586     0561  3474               	retlw	116	;'t'
   587     0562  342F               	retlw	47	;'/'
   588     0563  3452               	retlw	82	;'R'
   589     0564  3465               	retlw	101	;'e'
   590     0565  3473               	retlw	115	;'s'
   591     0566  3475               	retlw	117	;'u'
   592     0567  346D               	retlw	109	;'m'
   593     0568  3465               	retlw	101	;'e'
   594     0569  3400               	retlw	0
   595     056A                     STR_16:
   596     056A  3420               	retlw	32	;' '
   597     056B  3420               	retlw	32	;' '
   598     056C  3450               	retlw	80	;'P'
   599     056D  3472               	retlw	114	;'r'
   600     056E  3465               	retlw	101	;'e'
   601     056F  342D               	retlw	45	;'-'
   602     0570  3448               	retlw	72	;'H'
   603     0571  3465               	retlw	101	;'e'
   604     0572  3461               	retlw	97	;'a'
   605     0573  3474               	retlw	116	;'t'
   606     0574  3469               	retlw	105	;'i'
   607     0575  346E               	retlw	110	;'n'
   608     0576  3467               	retlw	103	;'g'
   609     0577  3420               	retlw	32	;' '
   610     0578  3400               	retlw	0
   611     0579                     STR_13:
   612     0579  3453               	retlw	83	;'S'
   613     057A  3445               	retlw	69	;'E'
   614     057B  3454               	retlw	84	;'T'
   615     057C  3420               	retlw	32	;' '
   616     057D  3454               	retlw	84	;'T'
   617     057E  3445               	retlw	69	;'E'
   618     057F  344D               	retlw	77	;'M'
   619     0580  3450               	retlw	80	;'P'
   620     0581  3420               	retlw	32	;' '
   621     0582  3428               	retlw	40	;'('
   622     0583  346F               	retlw	111	;'o'
   623     0584  3443               	retlw	67	;'C'
   624     0585  3429               	retlw	41	;')'
   625     0586  3400               	retlw	0
   626     0587                     STR_11:
   627     0587  3433               	retlw	51	;'3'
   628     0588  342E               	retlw	46	;'.'
   629     0589  3443               	retlw	67	;'C'
   630     058A  346F               	retlw	111	;'o'
   631     058B  346E               	retlw	110	;'n'
   632     058C  3476               	retlw	118	;'v'
   633     058D  3465               	retlw	101	;'e'
   634     058E  3463               	retlw	99	;'c'
   635     058F  3474               	retlw	116	;'t'
   636     0590  3469               	retlw	105	;'i'
   637     0591  346F               	retlw	111	;'o'
   638     0592  346E               	retlw	110	;'n'
   639     0593  3400               	retlw	0
   640     0594                     STR_17:
   641     0594  3454               	retlw	84	;'T'
   642     0595  3469               	retlw	105	;'i'
   643     0596  346D               	retlw	109	;'m'
   644     0597  3465               	retlw	101	;'e'
   645     0598  3420               	retlw	32	;' '
   646     0599  3452               	retlw	82	;'R'
   647     059A  3465               	retlw	101	;'e'
   648     059B  346D               	retlw	109	;'m'
   649     059C  342E               	retlw	46	;'.'
   650     059D  343D               	retlw	61	;'='
   651     059E  3420               	retlw	32	;' '
   652     059F  3400               	retlw	0
   653     05A0                     STR_6:
   654     05A0  3420               	retlw	32	;' '
   655     05A1  3454               	retlw	84	;'T'
   656     05A2  3469               	retlw	105	;'i'
   657     05A3  346D               	retlw	109	;'m'
   658     05A4  3465               	retlw	101	;'e'
   659     05A5  3420               	retlw	32	;' '
   660     05A6  3455               	retlw	85	;'U'
   661     05A7  3470               	retlw	112	;'p'
   662     05A8  3420               	retlw	32	;' '
   663     05A9  3421               	retlw	33	;'!'
   664     05AA  3421               	retlw	33	;'!'
   665     05AB  3400               	retlw	0
   666     05AC                     STR_2:
   667     05AC  3420               	retlw	32	;' '
   668     05AD  3454               	retlw	84	;'T'
   669     05AE  3449               	retlw	73	;'I'
   670     05AF  344D               	retlw	77	;'M'
   671     05B0  3445               	retlw	69	;'E'
   672     05B1  3420               	retlw	32	;' '
   673     05B2  343D               	retlw	61	;'='
   674     05B3  3420               	retlw	32	;' '
   675     05B4  3420               	retlw	32	;' '
   676     05B5  3400               	retlw	0
   677     05B6                     STR_4:
   678     05B6  3420               	retlw	32	;' '
   679     05B7  3435               	retlw	53	;'5'
   680     05B8  342E               	retlw	46	;'.'
   681     05B9  3450               	retlw	80	;'P'
   682     05BA  3461               	retlw	97	;'a'
   683     05BB  3475               	retlw	117	;'u'
   684     05BC  3473               	retlw	115	;'s'
   685     05BD  3465               	retlw	101	;'e'
   686     05BE  3400               	retlw	0
   687     05BF                     STR_14:
   688     05BF  3454               	retlw	84	;'T'
   689     05C0  3445               	retlw	69	;'E'
   690     05C1  344D               	retlw	77	;'M'
   691     05C2  3450               	retlw	80	;'P'
   692     05C3  3420               	retlw	32	;' '
   693     05C4  343D               	retlw	61	;'='
   694     05C5  3420               	retlw	32	;' '
   695     05C6  3400               	retlw	0
   696     05C7                     STR_10:
   697     05C7  3432               	retlw	50	;'2'
   698     05C8  342E               	retlw	46	;'.'
   699     05C9  3447               	retlw	71	;'G'
   700     05CA  3472               	retlw	114	;'r'
   701     05CB  3469               	retlw	105	;'i'
   702     05CC  346C               	retlw	108	;'l'
   703     05CD  346C               	retlw	108	;'l'
   704     05CE  3400               	retlw	0
   705     05CF                     STR_9:
   706     05CF  3431               	retlw	49	;'1'
   707     05D0  342E               	retlw	46	;'.'
   708     05D1  344D               	retlw	77	;'M'
   709     05D2  3469               	retlw	105	;'i'
   710     05D3  3463               	retlw	99	;'c'
   711     05D4  3472               	retlw	114	;'r'
   712     05D5  346F               	retlw	111	;'o'
   713     05D6  3400               	retlw	0
   714     05D7                     STR_5:
   715     05D7  3420               	retlw	32	;' '
   716     05D8  3436               	retlw	54	;'6'
   717     05D9  342E               	retlw	46	;'.'
   718     05DA  3453               	retlw	83	;'S'
   719     05DB  3474               	retlw	116	;'t'
   720     05DC  346F               	retlw	111	;'o'
   721     05DD  3470               	retlw	112	;'p'
   722     05DE  3400               	retlw	0
   723     05DF                     STR_12:
   724     05DF  3434               	retlw	52	;'4'
   725     05E0  342E               	retlw	46	;'.'
   726     05E1  3453               	retlw	83	;'S'
   727     05E2  3474               	retlw	116	;'t'
   728     05E3  3461               	retlw	97	;'a'
   729     05E4  3472               	retlw	114	;'r'
   730     05E5  3474               	retlw	116	;'t'
   731     05E6  3400               	retlw	0
   732     05E7                     STR_20:
   733     05E7  3454               	retlw	84	;'T'
   734     05E8  3449               	retlw	73	;'I'
   735     05E9  344D               	retlw	77	;'M'
   736     05EA  3445               	retlw	69	;'E'
   737     05EB  342D               	retlw	45	;'-'
   738     05EC  3420               	retlw	32	;' '
   739     05ED  3400               	retlw	0
   740     0514                     
   741                           	psect	cinit
   742     000F                     start_initialization:	
   743                           ; #config settings
   744                           
   745     000F                     __initialization:
   746                           
   747                           ; Initialize objects allocated to BANK0
   748     000F  120A  118A  27FC  120A  118A  	fcall	__pidataBANK0	;fetch initializer
   749     0014  00C1               	movwf	__pdataBANK0& (0+127)
   750     0015  120A  118A  27FD  120A  118A  	fcall	__pidataBANK0+1	;fetch initializer
   751     001A  00C2               	movwf	(__pdataBANK0+1)& (0+127)
   752                           
   753                           ; Initialize objects allocated to COMMON
   754     001B  120A  118A  27FE  120A  118A  	fcall	__pidataCOMMON	;fetch initializer
   755     0020  00FB               	movwf	__pdataCOMMON& (0+127)
   756                           
   757                           ; Clear objects allocated to BANK0
   758     0021  01B2               	clrf	__pbssBANK0& (0+127)
   759     0022  01B3               	clrf	(__pbssBANK0+1)& (0+127)
   760     0023  01B4               	clrf	(__pbssBANK0+2)& (0+127)
   761     0024  01B5               	clrf	(__pbssBANK0+3)& (0+127)
   762     0025  01B6               	clrf	(__pbssBANK0+4)& (0+127)
   763     0026  01B7               	clrf	(__pbssBANK0+5)& (0+127)
   764     0027  01B8               	clrf	(__pbssBANK0+6)& (0+127)
   765     0028  01B9               	clrf	(__pbssBANK0+7)& (0+127)
   766     0029  01BA               	clrf	(__pbssBANK0+8)& (0+127)
   767     002A  01BB               	clrf	(__pbssBANK0+9)& (0+127)
   768     002B  01BC               	clrf	(__pbssBANK0+10)& (0+127)
   769     002C  01BD               	clrf	(__pbssBANK0+11)& (0+127)
   770     002D  01BE               	clrf	(__pbssBANK0+12)& (0+127)
   771     002E  01BF               	clrf	(__pbssBANK0+13)& (0+127)
   772     002F  01C0               	clrf	(__pbssBANK0+14)& (0+127)
   773     0030                     end_of_initialization:	
   774                           ;End of C runtime variable initialization code
   775                           
   776     0030                     __end_of__initialization:
   777     0030  0183               	clrf	3
   778     0031  120A  118A  2991   	ljmp	_main	;jump to C main() function
   779                           
   780                           	psect	dataCOMMON
   781     007B                     __pdataCOMMON:
   782     007B                     read_matrix_keypad@once:
   783     007B                     	ds	1
   784                           
   785                           	psect	bssBANK0
   786     0032                     __pbssBANK0:
   787     0032                     isr@count:
   788     0032                     	ds	2
   789     0034                     set_time@wait:
   790     0034                     	ds	2
   791     0036                     set_temp@wait:
   792     0036                     	ds	2
   793     0038                     set_time@blink:
   794     0038                     	ds	1
   795     0039                     set_time@blink_pos:
   796     0039                     	ds	1
   797     003A                     set_time@key_count:
   798     003A                     	ds	1
   799     003B                     set_temp@temp:
   800     003B                     	ds	1
   801     003C                     set_temp@blink:
   802     003C                     	ds	1
   803     003D                     set_temp@key_count:
   804     003D                     	ds	1
   805     003E                     _flag:
   806     003E                     	ds	1
   807     003F                     _min:
   808     003F                     	ds	1
   809     0040                     _sec:
   810     0040                     	ds	1
   811                           
   812                           	psect	dataBANK0
   813     0041                     __pdataBANK0:
   814     0041                     _operation_flag:
   815     0041                     	ds	2
   816                           
   817                           	psect	cstackCOMMON
   818     0070                     __pcstackCOMMON:
   819     0070                     ?_init_clcd:
   820     0070                     ?_init_matrix_keypad:	
   821                           ; 1 bytes @ 0x0
   822                           
   823     0070                     ?_init_timer2:	
   824                           ; 1 bytes @ 0x0
   825                           
   826     0070                     ?_read_matrix_keypad:	
   827                           ; 1 bytes @ 0x0
   828                           
   829     0070                     ?_clear_screen:	
   830                           ; 1 bytes @ 0x0
   831                           
   832     0070                     ?_power_on_screen:	
   833                           ; 1 bytes @ 0x0
   834                           
   835     0070                     ?_menu_display_screen:	
   836                           ; 1 bytes @ 0x0
   837                           
   838     0070                     ?_time_display_screen:	
   839                           ; 1 bytes @ 0x0
   840                           
   841     0070                     ?_init_config:	
   842                           ; 1 bytes @ 0x0
   843                           
   844     0070                     ?_main:	
   845                           ; 1 bytes @ 0x0
   846                           
   847     0070                     ?_init_display_controller:	
   848                           ; 1 bytes @ 0x0
   849                           
   850     0070                     ?_scan_keypad:	
   851                           ; 1 bytes @ 0x0
   852                           
   853     0070                     ?_isr:	
   854                           ; 1 bytes @ 0x0
   855                           
   856     0070                     ??_isr:	
   857                           ; 1 bytes @ 0x0
   858                           
   859                           
   860                           ; 1 bytes @ 0x0
   861     0070                     	ds	2
   862     0072                     ??_init_matrix_keypad:
   863     0072                     ??_init_timer2:	
   864                           ; 1 bytes @ 0x2
   865                           
   866     0072                     ?_clcd_write:	
   867                           ; 1 bytes @ 0x2
   868                           
   869     0072                     ??_scan_keypad:	
   870                           ; 1 bytes @ 0x2
   871                           
   872     0072                     ?___bmul:	
   873                           ; 1 bytes @ 0x2
   874                           
   875     0072                     ?___awdiv:	
   876                           ; 1 bytes @ 0x2
   877                           
   878     0072                     clcd_write@mode:	
   879                           ; 2 bytes @ 0x2
   880                           
   881     0072                     ___bmul@multiplicand:	
   882                           ; 1 bytes @ 0x2
   883                           
   884     0072                     scan_keypad@i:	
   885                           ; 1 bytes @ 0x2
   886                           
   887     0072                     ___awdiv@divisor:	
   888                           ; 2 bytes @ 0x2
   889                           
   890                           
   891                           ; 2 bytes @ 0x2
   892     0072                     	ds	1
   893     0073                     ??_clcd_write:
   894     0073                     ??___bmul:	
   895                           ; 1 bytes @ 0x3
   896                           
   897     0073                     ___bmul@product:	
   898                           ; 1 bytes @ 0x3
   899                           
   900                           
   901                           ; 1 bytes @ 0x3
   902     0073                     	ds	1
   903     0074                     ??_read_matrix_keypad:
   904     0074                     read_matrix_keypad@mode:	
   905                           ; 1 bytes @ 0x4
   906                           
   907     0074                     ___bmul@multiplier:	
   908                           ; 1 bytes @ 0x4
   909                           
   910     0074                     ___awdiv@dividend:	
   911                           ; 1 bytes @ 0x4
   912                           
   913                           
   914                           ; 2 bytes @ 0x4
   915     0074                     	ds	1
   916     0075                     clcd_write@byte:
   917     0075                     read_matrix_keypad@key:	
   918                           ; 1 bytes @ 0x5
   919                           
   920                           
   921                           ; 1 bytes @ 0x5
   922     0075                     	ds	1
   923     0076                     ??_clear_screen:
   924     0076                     ?_clcd_print:	
   925                           ; 1 bytes @ 0x6
   926                           
   927     0076                     ??_init_display_controller:	
   928                           ; 1 bytes @ 0x6
   929                           
   930     0076                     ??___awdiv:	
   931                           ; 1 bytes @ 0x6
   932                           
   933     0076                     clcd_print@addr:	
   934                           ; 1 bytes @ 0x6
   935                           
   936     0076                     ___awdiv@counter:	
   937                           ; 1 bytes @ 0x6
   938                           
   939                           
   940                           ; 1 bytes @ 0x6
   941     0076                     	ds	1
   942     0077                     ??_clcd_print:
   943     0077                     clcd_print@str:	
   944                           ; 1 bytes @ 0x7
   945                           
   946     0077                     ___awdiv@sign:	
   947                           ; 1 bytes @ 0x7
   948                           
   949                           
   950                           ; 1 bytes @ 0x7
   951     0077                     	ds	1
   952     0078                     ??_init_clcd:
   953     0078                     ??_menu_display_screen:	
   954                           ; 1 bytes @ 0x8
   955                           
   956     0078                     ??_init_config:	
   957                           ; 1 bytes @ 0x8
   958                           
   959     0078                     ___awdiv@quotient:	
   960                           ; 1 bytes @ 0x8
   961                           
   962                           
   963                           ; 2 bytes @ 0x8
   964     0078                     	ds	2
   965     007A                     ??_clcd_putch:
   966     007A                     ??___awmod:	
   967                           ; 1 bytes @ 0xA
   968                           
   969     007A                     clcd_putch@data:	
   970                           ; 1 bytes @ 0xA
   971                           
   972                           
   973                           ; 1 bytes @ 0xA
   974     007A                     	ds	1
   975                           
   976                           	psect	cstackBANK0
   977     0020                     __pcstackBANK0:
   978     0020                     ?___awmod:
   979     0020                     ___awmod@divisor:	
   980                           ; 2 bytes @ 0x0
   981                           
   982                           
   983                           ; 2 bytes @ 0x0
   984     0020                     	ds	2
   985     0022                     ___awmod@dividend:
   986                           
   987                           ; 2 bytes @ 0x2
   988     0022                     	ds	2
   989     0024                     ___awmod@counter:
   990                           
   991                           ; 1 bytes @ 0x4
   992     0024                     	ds	1
   993     0025                     ___awmod@sign:
   994                           
   995                           ; 1 bytes @ 0x5
   996     0025                     	ds	1
   997     0026                     ?_clcd_putch:
   998     0026                     clcd_putch@addr:	
   999                           ; 1 bytes @ 0x6
  1000                           
  1001                           
  1002                           ; 1 bytes @ 0x6
  1003     0026                     	ds	1
  1004     0027                     ??_power_on_screen:
  1005     0027                     ?_set_time:	
  1006                           ; 1 bytes @ 0x7
  1007                           
  1008     0027                     ?_set_temp:	
  1009                           ; 1 bytes @ 0x7
  1010                           
  1011     0027                     ??_time_display_screen:	
  1012                           ; 1 bytes @ 0x7
  1013                           
  1014     0027                     set_temp@reset_flag:	
  1015                           ; 1 bytes @ 0x7
  1016                           
  1017     0027                     set_time@reset_flag:	
  1018                           ; 2 bytes @ 0x7
  1019                           
  1020                           
  1021                           ; 2 bytes @ 0x7
  1022     0027                     	ds	2
  1023     0029                     ??_set_time:
  1024     0029                     ??_set_temp:	
  1025                           ; 1 bytes @ 0x9
  1026                           
  1027                           
  1028                           ; 1 bytes @ 0x9
  1029     0029                     	ds	1
  1030     002A                     power_on_screen@i:
  1031                           
  1032                           ; 1 bytes @ 0xA
  1033     002A                     	ds	1
  1034     002B                     set_temp@key:
  1035     002B                     set_time@key:	
  1036                           ; 1 bytes @ 0xB
  1037                           
  1038                           
  1039                           ; 1 bytes @ 0xB
  1040     002B                     	ds	1
  1041     002C                     ??_main:
  1042                           
  1043                           ; 1 bytes @ 0xC
  1044     002C                     	ds	3
  1045     002F                     main@reset_flag:
  1046                           
  1047                           ; 2 bytes @ 0xF
  1048     002F                     	ds	2
  1049     0031                     main@key:
  1050                           
  1051                           ; 1 bytes @ 0x11
  1052     0031                     	ds	1
  1053                           
  1054                           	psect	maintext
  1055     0191                     __pmaintext:	
  1056 ;;
  1057 ;;Main: autosize = 0, tempsize = 3, incstack = 0, save=0
  1058 ;;
  1059 ;; *************** function _main *****************
  1060 ;; Defined at:
  1061 ;;		line 37 in file "main.c"
  1062 ;; Parameters:    Size  Location     Type
  1063 ;;		None
  1064 ;; Auto vars:     Size  Location     Type
  1065 ;;  reset_flag      2   15[BANK0 ] int 
  1066 ;;  key             1   17[BANK0 ] unsigned char 
  1067 ;; Return value:  Size  Location     Type
  1068 ;;                  1    wreg      void 
  1069 ;; Registers used:
  1070 ;;		wreg, fsr0l, fsr0h, status,2, status,0, btemp+1, pclath, cstack
  1071 ;; Tracked objects:
  1072 ;;		On entry : B00/0
  1073 ;;		On exit  : 0/0
  1074 ;;		Unchanged: 0/0
  1075 ;; Data sizes:     COMMON   BANK0   BANK1   BANK3   BANK2
  1076 ;;      Params:         0       0       0       0       0
  1077 ;;      Locals:         0       3       0       0       0
  1078 ;;      Temps:          0       3       0       0       0
  1079 ;;      Totals:         0       6       0       0       0
  1080 ;;Total ram usage:        6 bytes
  1081 ;; Hardware stack levels required when called: 5
  1082 ;; This function calls:
  1083 ;;		_clcd_print
  1084 ;;		_clear_screen
  1085 ;;		_init_config
  1086 ;;		_menu_display_screen
  1087 ;;		_power_on_screen
  1088 ;;		_read_matrix_keypad
  1089 ;;		_set_temp
  1090 ;;		_set_time
  1091 ;;		_time_display_screen
  1092 ;; This function is called by:
  1093 ;;		Startup code after reset
  1094 ;; This function uses a non-reentrant model
  1095 ;;
  1096                           
  1097     0191                     _main:	
  1098                           ;psect for function _main
  1099                           
  1100     0191                     l2668:	
  1101                           ;incstack = 0
  1102                           ; Regs used in _main: [wreg-fsr0h+status,2+status,0+btemp+1+pclath+cstack]
  1103                           
  1104                           
  1105                           ;main.c: 38:             reset_flag = 0x10 ;
  1106     0191  120A  158A  26A8  120A  118A  	fcall	_init_config
  1107     0196                     l2670:
  1108                           
  1109                           ;main.c: 45:         {
  1110     0196  3001               	movlw	1
  1111     0197  120A  158A  26E7  120A  118A  	fcall	_read_matrix_keypad
  1112     019C  1283               	bcf	3,5	;RP0=0, select bank0
  1113     019D  1303               	bcf	3,6	;RP1=0, select bank0
  1114     019E  00B1               	movwf	main@key
  1115     019F                     l2672:
  1116                           
  1117                           ;main.c: 46:             operation_flag = 0X04;
  1118     019F  3002               	movlw	2
  1119     01A0  0641               	xorwf	_operation_flag,w
  1120     01A1  0442               	iorwf	_operation_flag+1,w
  1121     01A2  1D03               	btfss	3,2
  1122     01A3  29A5               	goto	u2401
  1123     01A4  29A6               	goto	u2400
  1124     01A5                     u2401:
  1125     01A5  2A0A               	goto	l2712
  1126     01A6                     u2400:
  1127     01A6                     l2674:
  1128                           
  1129                           ;main.c: 47:             reset_flag = 0x10;;main.c: 49: 
  1130     01A6  0331               	decf	main@key,w
  1131     01A7  1D03               	btfss	3,2
  1132     01A8  29AA               	goto	u2411
  1133     01A9  29AB               	goto	u2410
  1134     01AA                     u2411:
  1135     01AA  29D4               	goto	l2686
  1136     01AB                     u2410:
  1137     01AB                     l2676:
  1138                           
  1139                           ;main.c: 50:         };main.c: 51:         else if(key == 3)
  1140     01AB  3003               	movlw	3
  1141     01AC  00C1               	movwf	_operation_flag
  1142     01AD  3000               	movlw	0
  1143     01AE  00C2               	movwf	_operation_flag+1
  1144                           
  1145                           ;main.c: 52:         {
  1146     01AF  3010               	movlw	16
  1147     01B0  00AF               	movwf	main@reset_flag
  1148     01B1  3000               	movlw	0
  1149     01B2  00B0               	movwf	main@reset_flag+1
  1150     01B3                     l2678:
  1151                           
  1152                           ;main.c: 53:             operation_flag = 0x05;
  1153     01B3  120A  158A  2684  120A  118A  	fcall	_clear_screen
  1154     01B8                     l2680:
  1155                           
  1156                           ;main.c: 54:             reset_flag = 0x10;
  1157     01B8  30C0               	movlw	192
  1158     01B9  00F6               	movwf	clcd_print@addr
  1159     01BA  3045               	movlw	(low ((STR_1-__stringbase)| (0+32768)))& (0+255)
  1160     01BB  120A  158A  270A  120A  118A  	fcall	_clcd_print
  1161     01C0                     l2682:
  1162                           
  1163                           ;main.c: 55:             clear_screen();
  1164     01C0  304D               	movlw	77
  1165     01C1  1283               	bcf	3,5	;RP0=0, select bank0
  1166     01C2  1303               	bcf	3,6	;RP1=0, select bank0
  1167     01C3  00AE               	movwf	??_main+2
  1168     01C4  3019               	movlw	25
  1169     01C5  00AD               	movwf	??_main+1
  1170     01C6  304F               	movlw	79
  1171     01C7  00AC               	movwf	??_main
  1172     01C8                     u2557:
  1173     01C8  0BAC               	decfsz	??_main,f
  1174     01C9  29C8               	goto	u2557
  1175     01CA  0BAD               	decfsz	??_main+1,f
  1176     01CB  29C8               	goto	u2557
  1177     01CC  0BAE               	decfsz	??_main+2,f
  1178     01CD  29C8               	goto	u2557
  1179     01CE                     l2684:
  1180                           
  1181                           ;main.c: 56: 
  1182     01CE  120A  158A  2684  120A  118A  	fcall	_clear_screen
  1183                           
  1184                           ;main.c: 57:         }
  1185     01D3  2ABD               	goto	l2774
  1186     01D4                     l2686:
  1187     01D4  3002               	movlw	2
  1188     01D5  0631               	xorwf	main@key,w
  1189     01D6  1D03               	btfss	3,2
  1190     01D7  29D9               	goto	u2421
  1191     01D8  29DA               	goto	u2420
  1192     01D9                     u2421:
  1193     01D9  29E3               	goto	l2692
  1194     01DA                     u2420:
  1195     01DA                     l2688:
  1196                           
  1197                           ;main.c: 59:         {;main.c: 60:             sec = 30;
  1198     01DA  3004               	movlw	4
  1199     01DB  00C1               	movwf	_operation_flag
  1200     01DC  3000               	movlw	0
  1201     01DD  00C2               	movwf	_operation_flag+1
  1202                           
  1203                           ;main.c: 61:             min = 0;
  1204     01DE  3010               	movlw	16
  1205     01DF  00AF               	movwf	main@reset_flag
  1206     01E0  3000               	movlw	0
  1207     01E1  00B0               	movwf	main@reset_flag+1
  1208     01E2  29CE               	goto	l2684
  1209     01E3                     l2692:
  1210     01E3  3003               	movlw	3
  1211     01E4  0631               	xorwf	main@key,w
  1212     01E5  1D03               	btfss	3,2
  1213     01E6  29E8               	goto	u2431
  1214     01E7  29E9               	goto	u2430
  1215     01E8                     u2431:
  1216     01E8  29F2               	goto	l2698
  1217     01E9                     u2430:
  1218     01E9                     l2694:
  1219                           
  1220                           ;main.c: 66:         };main.c: 67:        }
  1221     01E9  3005               	movlw	5
  1222     01EA  00C1               	movwf	_operation_flag
  1223     01EB  3000               	movlw	0
  1224     01EC  00C2               	movwf	_operation_flag+1
  1225                           
  1226                           ;main.c: 68:        else if(operation_flag == 0x07)
  1227     01ED  3010               	movlw	16
  1228     01EE  00AF               	movwf	main@reset_flag
  1229     01EF  3000               	movlw	0
  1230     01F0  00B0               	movwf	main@reset_flag+1
  1231     01F1  29CE               	goto	l2684
  1232     01F2                     l2698:
  1233     01F2  3004               	movlw	4
  1234     01F3  0631               	xorwf	main@key,w
  1235     01F4  1D03               	btfss	3,2
  1236     01F5  29F7               	goto	u2441
  1237     01F6  29F8               	goto	u2440
  1238     01F7                     u2441:
  1239     01F7  2A09               	goto	l61
  1240     01F8                     u2440:
  1241     01F8                     l2700:
  1242                           
  1243                           ;main.c: 73:                if(sec > 59);main.c: 74:                {
  1244     01F8  301E               	movlw	30
  1245     01F9  00C0               	movwf	_sec
  1246     01FA                     l2702:
  1247                           
  1248                           ;main.c: 75:                    min++;
  1249     01FA  01BF               	clrf	_min
  1250     01FB                     l2704:
  1251                           
  1252                           ;main.c: 76:                    sec = sec - 60;
  1253     01FB  1507               	bsf	7,2	;volatile
  1254     01FC                     l2706:
  1255                           
  1256                           ;main.c: 77:                }
  1257     01FC  1512               	bsf	18,2	;volatile
  1258     01FD                     l2708:
  1259                           
  1260                           ;main.c: 78:             }
  1261     01FD  120A  158A  2684  120A  118A  	fcall	_clear_screen
  1262     0202                     l2710:
  1263                           
  1264                           ;main.c: 79:             else if(key == 5)
  1265     0202  3007               	movlw	7
  1266     0203  1283               	bcf	3,5	;RP0=0, select bank0
  1267     0204  1303               	bcf	3,6	;RP1=0, select bank0
  1268     0205  00C1               	movwf	_operation_flag
  1269     0206  3000               	movlw	0
  1270     0207  00C2               	movwf	_operation_flag+1
  1271     0208  2ABD               	goto	l2774
  1272     0209                     l61:
  1273                           
  1274                           ;main.c: 81:                 operation_flag = 0x09;
  1275     0209  2ABD               	goto	l2774
  1276     020A                     l2712:
  1277     020A  3007               	movlw	7
  1278     020B  0641               	xorwf	_operation_flag,w
  1279     020C  0442               	iorwf	_operation_flag+1,w
  1280     020D  1D03               	btfss	3,2
  1281     020E  2A10               	goto	u2451
  1282     020F  2A11               	goto	u2450
  1283     0210                     u2451:
  1284     0210  2A3E               	goto	l2734
  1285     0211                     u2450:
  1286     0211                     l2714:
  1287                           
  1288                           ;main.c: 83:             else if(key == 6);main.c: 84:             {
  1289     0211  3004               	movlw	4
  1290     0212  0631               	xorwf	main@key,w
  1291     0213  1D03               	btfss	3,2
  1292     0214  2A16               	goto	u2461
  1293     0215  2A17               	goto	u2460
  1294     0216                     u2461:
  1295     0216  2A28               	goto	l2724
  1296     0217                     u2460:
  1297     0217                     l2716:
  1298                           
  1299                           ;main.c: 85:                 operation_flag = 0x0A;;main.c: 86:                 clear_sc
      +                          reen();
  1300     0217  0840               	movf	_sec,w
  1301     0218  3E1E               	addlw	30
  1302     0219  00C0               	movwf	_sec
  1303     021A                     l2718:
  1304                           
  1305                           ;main.c: 87: 
  1306     021A  303C               	movlw	60
  1307     021B  0240               	subwf	_sec,w
  1308     021C  1C03               	skipc
  1309     021D  2A1F               	goto	u2471
  1310     021E  2A20               	goto	u2470
  1311     021F                     u2471:
  1312     021F  2ABD               	goto	l2774
  1313     0220                     u2470:
  1314     0220                     l2720:
  1315                           
  1316                           ;main.c: 88:             };main.c: 89:         }
  1317     0220  3001               	movlw	1
  1318     0221  00FF               	movwf	btemp+1
  1319     0222  087F               	movf	btemp+1,w
  1320     0223  07BF               	addwf	_min,f
  1321     0224                     l2722:
  1322                           
  1323                           ;main.c: 90:         else if(operation_flag == 0x09)
  1324     0224  0840               	movf	_sec,w
  1325     0225  3EC4               	addlw	196
  1326     0226  00C0               	movwf	_sec
  1327     0227  2ABD               	goto	l2774
  1328     0228                     l2724:
  1329     0228  3005               	movlw	5
  1330     0229  0631               	xorwf	main@key,w
  1331     022A  1D03               	btfss	3,2
  1332     022B  2A2D               	goto	u2481
  1333     022C  2A2E               	goto	u2480
  1334     022D                     u2481:
  1335     022D  2A33               	goto	l2728
  1336     022E                     u2480:
  1337     022E                     l2726:
  1338                           
  1339                           ;main.c: 94:                RC2 = 1;;main.c: 95:                TMR2ON = 1;
  1340     022E  3009               	movlw	9
  1341     022F  00C1               	movwf	_operation_flag
  1342     0230  3000               	movlw	0
  1343     0231  00C2               	movwf	_operation_flag+1
  1344                           
  1345                           ;main.c: 96:                operation_flag = 0x07;
  1346     0232  2ABD               	goto	l2774
  1347     0233                     l2728:
  1348     0233  3006               	movlw	6
  1349     0234  0631               	xorwf	main@key,w
  1350     0235  1D03               	btfss	3,2
  1351     0236  2A38               	goto	u2491
  1352     0237  2A39               	goto	u2490
  1353     0238                     u2491:
  1354     0238  2A09               	goto	l61
  1355     0239                     u2490:
  1356     0239                     l2730:
  1357                           
  1358                           ;main.c: 98:         };main.c: 99: 
  1359     0239  300A               	movlw	10
  1360     023A  00C1               	movwf	_operation_flag
  1361     023B  3000               	movlw	0
  1362     023C  00C2               	movwf	_operation_flag+1
  1363     023D  29CE               	goto	l2684
  1364     023E                     l2734:
  1365     023E  3009               	movlw	9
  1366     023F  0641               	xorwf	_operation_flag,w
  1367     0240  0442               	iorwf	_operation_flag+1,w
  1368     0241  1D03               	btfss	3,2
  1369     0242  2A44               	goto	u2501
  1370     0243  2A45               	goto	u2500
  1371     0244                     u2501:
  1372     0244  2A09               	goto	l61
  1373     0245                     u2500:
  1374     0245                     l2736:
  1375                           
  1376                           ;main.c: 105:                operation_flag = 0X02 ;;main.c: 106:                clear_s
      +                          creen();
  1377     0245  3004               	movlw	4
  1378     0246  0631               	xorwf	main@key,w
  1379     0247  1D03               	btfss	3,2
  1380     0248  2A4A               	goto	u2511
  1381     0249  2A4B               	goto	u2510
  1382     024A                     u2511:
  1383     024A  2ABD               	goto	l2774
  1384     024B                     u2510:
  1385     024B                     l2738:
  1386                           
  1387                           ;main.c: 107:                  break;;main.c: 108:            case 0X02:
  1388     024B  1507               	bsf	7,2	;volatile
  1389                           
  1390                           ;main.c: 109:                menu_display_screen();
  1391     024C  1512               	bsf	18,2	;volatile
  1392     024D  2A02               	goto	l2710
  1393     024E                     l2742:
  1394                           
  1395                           ;main.c: 118:                if(flag == 0)
  1396     024E  120A  118A  277C  120A  118A  	fcall	_power_on_screen
  1397     0253                     l2744:
  1398                           
  1399                           ;main.c: 119:                {
  1400     0253  3002               	movlw	2
  1401     0254  1283               	bcf	3,5	;RP0=0, select bank0
  1402     0255  1303               	bcf	3,6	;RP1=0, select bank0
  1403     0256  00C1               	movwf	_operation_flag
  1404     0257  3000               	movlw	0
  1405     0258  00C2               	movwf	_operation_flag+1
  1406     0259                     l2746:
  1407                           
  1408                           ;main.c: 120:                    set_temp(key, reset_flag);
  1409     0259  120A  158A  2684  120A  118A  	fcall	_clear_screen
  1410                           
  1411                           ;main.c: 121:                    if(flag == 1)
  1412     025E  2ADE               	goto	l2776
  1413     025F                     l2748:
  1414                           
  1415                           ;main.c: 123:                        clear_screen();
  1416     025F  120A  158A  26C6  120A  118A  	fcall	_menu_display_screen
  1417                           
  1418                           ;main.c: 124:                       reset_flag = 0x10;
  1419     0264  2ADE               	goto	l2776
  1420     0265                     l2750:
  1421                           
  1422                           ;main.c: 126:                    }
  1423     0265  0830               	movf	main@reset_flag+1,w
  1424     0266  00A8               	movwf	set_time@reset_flag+1
  1425     0267  082F               	movf	main@reset_flag,w
  1426     0268  00A7               	movwf	set_time@reset_flag
  1427     0269  0831               	movf	main@key,w
  1428     026A  120A  118A  22E8  120A  118A  	fcall	_set_time
  1429                           
  1430                           ;main.c: 127:                }
  1431     026F  2ADE               	goto	l2776
  1432     0270                     l2752:
  1433                           
  1434                           ;main.c: 129:                {
  1435     0270  0830               	movf	main@reset_flag+1,w
  1436     0271  00A8               	movwf	set_time@reset_flag+1
  1437     0272  082F               	movf	main@reset_flag,w
  1438     0273  00A7               	movwf	set_time@reset_flag
  1439     0274  0831               	movf	main@key,w
  1440     0275  120A  118A  22E8  120A  118A  	fcall	_set_time
  1441                           
  1442                           ;main.c: 130:                    set_time(key, reset_flag);
  1443     027A  2ADE               	goto	l2776
  1444     027B                     l2754:
  1445                           
  1446                           ;main.c: 132: 
  1447     027B  083E               	movf	_flag,w
  1448     027C  1D03               	btfss	3,2
  1449     027D  2A7F               	goto	u2521
  1450     027E  2A80               	goto	u2520
  1451     027F                     u2521:
  1452     027F  2A9D               	goto	l2764
  1453     0280                     u2520:
  1454     0280                     l2756:
  1455                           
  1456                           ;main.c: 133:                break;;main.c: 134:            case 0x07:
  1457     0280  0830               	movf	main@reset_flag+1,w
  1458     0281  00A8               	movwf	set_temp@reset_flag+1
  1459     0282  082F               	movf	main@reset_flag,w
  1460     0283  00A7               	movwf	set_temp@reset_flag
  1461     0284  0831               	movf	main@key,w
  1462     0285  120A  118A  2034  120A  118A  	fcall	_set_temp
  1463     028A                     l2758:
  1464                           
  1465                           ;main.c: 135:                time_display_screen();
  1466     028A  1283               	bcf	3,5	;RP0=0, select bank0
  1467     028B  1303               	bcf	3,6	;RP1=0, select bank0
  1468     028C  033E               	decf	_flag,w
  1469     028D  1D03               	btfss	3,2
  1470     028E  2A90               	goto	u2531
  1471     028F  2A91               	goto	u2530
  1472     0290                     u2531:
  1473     0290  2ADE               	goto	l2776
  1474     0291                     u2530:
  1475     0291                     l2760:
  1476                           
  1477                           ;main.c: 136:                break;;main.c: 137:            case 0x09:
  1478     0291  120A  158A  2684  120A  118A  	fcall	_clear_screen
  1479     0296                     l2762:
  1480                           
  1481                           ;main.c: 138:                RC2 = 0;
  1482     0296  3010               	movlw	16
  1483     0297  1283               	bcf	3,5	;RP0=0, select bank0
  1484     0298  1303               	bcf	3,6	;RP1=0, select bank0
  1485     0299  00AF               	movwf	main@reset_flag
  1486     029A  3000               	movlw	0
  1487     029B  00B0               	movwf	main@reset_flag+1
  1488                           
  1489                           ;main.c: 139:                TMR2ON = 0;
  1490     029C  2996               	goto	l2670
  1491     029D                     l2764:
  1492     029D  033E               	decf	_flag,w
  1493     029E  1D03               	btfss	3,2
  1494     029F  2AA1               	goto	u2541
  1495     02A0  2AA2               	goto	u2540
  1496     02A1                     u2541:
  1497     02A1  2ADE               	goto	l2776
  1498     02A2                     u2540:
  1499     02A2                     l2766:
  1500                           
  1501                           ;main.c: 143:                TMR2ON = 0;;main.c: 144:                operation_flag = 0X
      +                          02 ;
  1502     02A2  0830               	movf	main@reset_flag+1,w
  1503     02A3  00A8               	movwf	set_time@reset_flag+1
  1504     02A4  082F               	movf	main@reset_flag,w
  1505     02A5  00A7               	movwf	set_time@reset_flag
  1506     02A6  0831               	movf	main@key,w
  1507     02A7  120A  118A  22E8  120A  118A  	fcall	_set_time
  1508     02AC  2ADE               	goto	l2776
  1509     02AD                     l2768:
  1510                           
  1511                           ;main.c: 149:     }
  1512     02AD  120A  118A  25EE  120A  118A  	fcall	_time_display_screen
  1513                           
  1514                           ;main.c: 150: }
  1515     02B2  2ADE               	goto	l2776
  1516     02B3                     l91:	
  1517                           ;main.c: 151: 
  1518                           
  1519                           
  1520                           ;main.c: 152: void time_display_screen(void)
  1521     02B3  1107               	bcf	7,2	;volatile
  1522                           
  1523                           ;main.c: 153: {
  1524     02B4  1112               	bcf	18,2	;volatile
  1525                           
  1526                           ;main.c: 154: 
  1527     02B5  2ADE               	goto	l2776
  1528     02B6                     l92:	
  1529                           ;main.c: 155:     clcd_print(" TIME =  ", (0x80 + 0));
  1530                           
  1531                           
  1532                           ;main.c: 156: 
  1533     02B6  1107               	bcf	7,2	;volatile
  1534                           
  1535                           ;main.c: 157:      clcd_putch( min/10 + '0', (0x80 + 9));
  1536     02B7  1112               	bcf	18,2	;volatile
  1537     02B8                     l2770:
  1538                           
  1539                           ;main.c: 158:     clcd_putch( min%10 + '0', (0x80 + 10));
  1540     02B8  3002               	movlw	2
  1541     02B9  00C1               	movwf	_operation_flag
  1542     02BA  3000               	movlw	0
  1543     02BB  00C2               	movwf	_operation_flag+1
  1544                           
  1545                           ;main.c: 159:     clcd_putch(':', (0x80 + 11));
  1546     02BC  2ADE               	goto	l2776
  1547     02BD                     l2774:
  1548                           
  1549                           ; Switch on 2 bytes has been partitioned into a top level switch of size 1, and 1 sub-sw
      +                          itches
  1550                           ; Switch size 1, requested type "simple"
  1551                           ; Number of cases is 1, Range of values is 0 to 0
  1552                           ; switch strategies available:
  1553                           ; Name         Instructions Cycles
  1554                           ; simple_byte            4     3 (average)
  1555                           ; direct_byte           11     8 (fixed)
  1556                           ; jumptable            260     6 (fixed)
  1557                           ;	Chosen strategy is simple_byte
  1558     02BD  1283               	bcf	3,5	;RP0=0, select bank0
  1559     02BE  1303               	bcf	3,6	;RP1=0, select bank0
  1560     02BF  0842               	movf	_operation_flag+1,w
  1561     02C0  3A00               	xorlw	0	; case 0
  1562     02C1  1903               	skipnz
  1563     02C2  2AC4               	goto	l2834
  1564     02C3  2ADE               	goto	l2776
  1565     02C4                     l2834:
  1566                           
  1567                           ; Switch size 1, requested type "simple"
  1568                           ; Number of cases is 8, Range of values is 1 to 10
  1569                           ; switch strategies available:
  1570                           ; Name         Instructions Cycles
  1571                           ; simple_byte           25    13 (average)
  1572                           ; direct_byte           41    11 (fixed)
  1573                           ; jumptable            263     9 (fixed)
  1574                           ;	Chosen strategy is simple_byte
  1575     02C4  0841               	movf	_operation_flag,w
  1576     02C5  3A01               	xorlw	1	; case 1
  1577     02C6  1903               	skipnz
  1578     02C7  2A4E               	goto	l2742
  1579     02C8  3A03               	xorlw	3	; case 2
  1580     02C9  1903               	skipnz
  1581     02CA  2A5F               	goto	l2748
  1582     02CB  3A01               	xorlw	1	; case 3
  1583     02CC  1903               	skipnz
  1584     02CD  2A70               	goto	l2752
  1585     02CE  3A07               	xorlw	7	; case 4
  1586     02CF  1903               	skipnz
  1587     02D0  2A65               	goto	l2750
  1588     02D1  3A01               	xorlw	1	; case 5
  1589     02D2  1903               	skipnz
  1590     02D3  2A7B               	goto	l2754
  1591     02D4  3A02               	xorlw	2	; case 7
  1592     02D5  1903               	skipnz
  1593     02D6  2AAD               	goto	l2768
  1594     02D7  3A0E               	xorlw	14	; case 9
  1595     02D8  1903               	skipnz
  1596     02D9  2AB3               	goto	l91
  1597     02DA  3A03               	xorlw	3	; case 10
  1598     02DB  1903               	skipnz
  1599     02DC  2AB6               	goto	l92
  1600     02DD  2ADE               	goto	l2776
  1601     02DE                     l2776:
  1602                           
  1603                           ;main.c: 161: 
  1604     02DE  300F               	movlw	15
  1605     02DF  1283               	bcf	3,5	;RP0=0, select bank0
  1606     02E0  1303               	bcf	3,6	;RP1=0, select bank0
  1607     02E1  00AF               	movwf	main@reset_flag
  1608     02E2  3000               	movlw	0
  1609     02E3  00B0               	movwf	main@reset_flag+1
  1610     02E4  2996               	goto	l2670
  1611     02E5  120A  118A  280C   	ljmp	start
  1612     02E8                     __end_of_main:
  1613                           
  1614                           	psect	text1
  1615     05EE                     __ptext1:	
  1616 ;; *************** function _time_display_screen *****************
  1617 ;; Defined at:
  1618 ;;		line 166 in file "main.c"
  1619 ;; Parameters:    Size  Location     Type
  1620 ;;		None
  1621 ;; Auto vars:     Size  Location     Type
  1622 ;;		None
  1623 ;; Return value:  Size  Location     Type
  1624 ;;                  1    wreg      void 
  1625 ;; Registers used:
  1626 ;;		wreg, fsr0l, fsr0h, status,2, status,0, btemp+1, pclath, cstack
  1627 ;; Tracked objects:
  1628 ;;		On entry : 0/0
  1629 ;;		On exit  : 0/0
  1630 ;;		Unchanged: 0/0
  1631 ;; Data sizes:     COMMON   BANK0   BANK1   BANK3   BANK2
  1632 ;;      Params:         0       0       0       0       0
  1633 ;;      Locals:         0       0       0       0       0
  1634 ;;      Temps:          0       3       0       0       0
  1635 ;;      Totals:         0       3       0       0       0
  1636 ;;Total ram usage:        3 bytes
  1637 ;; Hardware stack levels used: 1
  1638 ;; Hardware stack levels required when called: 3
  1639 ;; This function calls:
  1640 ;;		___awdiv
  1641 ;;		___awmod
  1642 ;;		_clcd_print
  1643 ;;		_clcd_putch
  1644 ;;		_clear_screen
  1645 ;; This function is called by:
  1646 ;;		_main
  1647 ;; This function uses a non-reentrant model
  1648 ;;
  1649                           
  1650     05EE                     _time_display_screen:	
  1651                           ;psect for function _time_display_screen
  1652                           
  1653     05EE                     l2628:	
  1654                           ;incstack = 0
  1655                           ; Regs used in _time_display_screen: [wreg-fsr0h+status,2+status,0+btemp+1+pclath+cstack
      +                          ]
  1656                           
  1657                           
  1658                           ;main.c: 169: 
  1659     05EE  3080               	movlw	128
  1660     05EF  00F6               	movwf	clcd_print@addr
  1661     05F0  30A7               	movlw	(low ((STR_2-__stringbase)| (0+32768)))& (0+255)
  1662     05F1  120A  158A  270A  120A  118A  	fcall	_clcd_print
  1663     05F6                     l2630:
  1664                           
  1665                           ;main.c: 171:     {
  1666     05F6  3089               	movlw	137
  1667     05F7  1283               	bcf	3,5	;RP0=0, select bank0
  1668     05F8  1303               	bcf	3,6	;RP1=0, select bank0
  1669     05F9  00A6               	movwf	clcd_putch@addr
  1670     05FA  300A               	movlw	10
  1671     05FB  00F2               	movwf	___awdiv@divisor
  1672     05FC  3000               	movlw	0
  1673     05FD  00F3               	movwf	___awdiv@divisor+1
  1674     05FE  083F               	movf	_min,w
  1675     05FF  00A7               	movwf	??_time_display_screen
  1676     0600  01A8               	clrf	??_time_display_screen+1
  1677     0601  0827               	movf	??_time_display_screen,w
  1678     0602  00F4               	movwf	___awdiv@dividend
  1679     0603  0828               	movf	??_time_display_screen+1,w
  1680     0604  00F5               	movwf	___awdiv@dividend+1
  1681     0605  120A  118A  243D  120A  118A  	fcall	___awdiv
  1682     060A  0872               	movf	?___awdiv,w
  1683     060B  3E30               	addlw	48
  1684     060C  120A  158A  2695  120A  118A  	fcall	_clcd_putch
  1685     0611                     l2632:
  1686                           
  1687                           ;main.c: 172:         clear_screen();
  1688     0611  308A               	movlw	138
  1689     0612  1283               	bcf	3,5	;RP0=0, select bank0
  1690     0613  1303               	bcf	3,6	;RP1=0, select bank0
  1691     0614  00A6               	movwf	clcd_putch@addr
  1692     0615  300A               	movlw	10
  1693     0616  00A0               	movwf	___awmod@divisor
  1694     0617  3000               	movlw	0
  1695     0618  00A1               	movwf	___awmod@divisor+1
  1696     0619  083F               	movf	_min,w
  1697     061A  00A7               	movwf	??_time_display_screen
  1698     061B  01A8               	clrf	??_time_display_screen+1
  1699     061C  0827               	movf	??_time_display_screen,w
  1700     061D  00A2               	movwf	___awmod@dividend
  1701     061E  0828               	movf	??_time_display_screen+1,w
  1702     061F  00A3               	movwf	___awmod@dividend+1
  1703     0620  120A  118A  24A4  120A  118A  	fcall	___awmod
  1704     0625  1283               	bcf	3,5	;RP0=0, select bank0
  1705     0626  1303               	bcf	3,6	;RP1=0, select bank0
  1706     0627  0820               	movf	?___awmod,w
  1707     0628  3E30               	addlw	48
  1708     0629  120A  158A  2695  120A  118A  	fcall	_clcd_putch
  1709     062E                     l2634:
  1710                           
  1711                           ;main.c: 173:         clcd_print(" Time Up !!", (0xC0 + 0));
  1712     062E  308B               	movlw	139
  1713     062F  1283               	bcf	3,5	;RP0=0, select bank0
  1714     0630  1303               	bcf	3,6	;RP1=0, select bank0
  1715     0631  00A6               	movwf	clcd_putch@addr
  1716     0632  303A               	movlw	58
  1717     0633  120A  158A  2695  120A  118A  	fcall	_clcd_putch
  1718     0638                     l2636:
  1719                           
  1720                           ;main.c: 176:         clear_screen();
  1721     0638  308C               	movlw	140
  1722     0639  1283               	bcf	3,5	;RP0=0, select bank0
  1723     063A  1303               	bcf	3,6	;RP1=0, select bank0
  1724     063B  00A6               	movwf	clcd_putch@addr
  1725     063C  300A               	movlw	10
  1726     063D  00F2               	movwf	___awdiv@divisor
  1727     063E  3000               	movlw	0
  1728     063F  00F3               	movwf	___awdiv@divisor+1
  1729     0640  0840               	movf	_sec,w
  1730     0641  00A7               	movwf	??_time_display_screen
  1731     0642  01A8               	clrf	??_time_display_screen+1
  1732     0643  0827               	movf	??_time_display_screen,w
  1733     0644  00F4               	movwf	___awdiv@dividend
  1734     0645  0828               	movf	??_time_display_screen+1,w
  1735     0646  00F5               	movwf	___awdiv@dividend+1
  1736     0647  120A  118A  243D  120A  118A  	fcall	___awdiv
  1737     064C  0872               	movf	?___awdiv,w
  1738     064D  3E30               	addlw	48
  1739     064E  120A  158A  2695  120A  118A  	fcall	_clcd_putch
  1740     0653                     l2638:
  1741                           
  1742                           ;main.c: 177:         RC1 = 0;
  1743     0653  308D               	movlw	141
  1744     0654  1283               	bcf	3,5	;RP0=0, select bank0
  1745     0655  1303               	bcf	3,6	;RP1=0, select bank0
  1746     0656  00A6               	movwf	clcd_putch@addr
  1747     0657  300A               	movlw	10
  1748     0658  00A0               	movwf	___awmod@divisor
  1749     0659  3000               	movlw	0
  1750     065A  00A1               	movwf	___awmod@divisor+1
  1751     065B  0840               	movf	_sec,w
  1752     065C  00A7               	movwf	??_time_display_screen
  1753     065D  01A8               	clrf	??_time_display_screen+1
  1754     065E  0827               	movf	??_time_display_screen,w
  1755     065F  00A2               	movwf	___awmod@dividend
  1756     0660  0828               	movf	??_time_display_screen+1,w
  1757     0661  00A3               	movwf	___awmod@dividend+1
  1758     0662  120A  118A  24A4  120A  118A  	fcall	___awmod
  1759     0667  1283               	bcf	3,5	;RP0=0, select bank0
  1760     0668  1303               	bcf	3,6	;RP1=0, select bank0
  1761     0669  0820               	movf	?___awmod,w
  1762     066A  3E30               	addlw	48
  1763     066B  120A  158A  2695  120A  118A  	fcall	_clcd_putch
  1764     0670                     l2640:
  1765                           
  1766                           ;main.c: 180:         TMR2ON = 0;
  1767     0670  30C0               	movlw	192
  1768     0671  00F6               	movwf	clcd_print@addr
  1769     0672  3055               	movlw	(low ((STR_3-__stringbase)| (0+32768)))& (0+255)
  1770     0673  120A  158A  270A  120A  118A  	fcall	_clcd_print
  1771     0678                     l2642:
  1772                           
  1773                           ;main.c: 181:         operation_flag = 0X02 ;
  1774     0678  3090               	movlw	144
  1775     0679  00F6               	movwf	clcd_print@addr
  1776     067A  30B1               	movlw	(low ((STR_4-__stringbase)| (0+32768)))& (0+255)
  1777     067B  120A  158A  270A  120A  118A  	fcall	_clcd_print
  1778     0680                     l2644:
  1779                           
  1780                           ;main.c: 182: 
  1781     0680  30D0               	movlw	208
  1782     0681  00F6               	movwf	clcd_print@addr
  1783     0682  30D2               	movlw	(low ((STR_5-__stringbase)| (0+32768)))& (0+255)
  1784     0683  120A  158A  270A  120A  118A  	fcall	_clcd_print
  1785     0688                     l2646:
  1786                           
  1787                           ;main.c: 184: }
  1788     0688  1283               	bcf	3,5	;RP0=0, select bank0
  1789     0689  1303               	bcf	3,6	;RP1=0, select bank0
  1790     068A  0840               	movf	_sec,w
  1791     068B  1D03               	btfss	3,2
  1792     068C  2E8E               	goto	u2381
  1793     068D  2E8F               	goto	u2380
  1794     068E                     u2381:
  1795     068E  2EC0               	goto	l98
  1796     068F                     u2380:
  1797     068F                     l2648:
  1798     068F  083F               	movf	_min,w
  1799     0690  1D03               	btfss	3,2
  1800     0691  2E93               	goto	u2391
  1801     0692  2E94               	goto	u2390
  1802     0693                     u2391:
  1803     0693  2EC0               	goto	l98
  1804     0694                     u2390:
  1805     0694                     l2650:
  1806                           
  1807                           ;main.c: 185: void clear_screen(void);main.c: 186: {
  1808     0694  120A  158A  2684  120A  118A  	fcall	_clear_screen
  1809     0699                     l2652:
  1810                           
  1811                           ;main.c: 187:     clcd_write(0x01, 0) ;
  1812     0699  30C0               	movlw	192
  1813     069A  00F6               	movwf	clcd_print@addr
  1814     069B  309B               	movlw	(low ((STR_6-__stringbase)| (0+32768)))& (0+255)
  1815     069C  120A  158A  270A  120A  118A  	fcall	_clcd_print
  1816     06A1                     l2654:
  1817                           
  1818                           ;main.c: 188:     _delay((unsigned long)((500)*(20000000/4000000.0))) ;
  1819     06A1  1283               	bcf	3,5	;RP0=0, select bank0
  1820     06A2  1303               	bcf	3,6	;RP1=0, select bank0
  1821     06A3  1487               	bsf	7,1	;volatile
  1822     06A4                     l2656:
  1823                           
  1824                           ;main.c: 189: }
  1825     06A4  304D               	movlw	77
  1826     06A5  1283               	bcf	3,5	;RP0=0, select bank0
  1827     06A6  1303               	bcf	3,6	;RP1=0, select bank0
  1828     06A7  00A9               	movwf	??_time_display_screen+2
  1829     06A8  3019               	movlw	25
  1830     06A9  00A8               	movwf	??_time_display_screen+1
  1831     06AA  304F               	movlw	79
  1832     06AB  00A7               	movwf	??_time_display_screen
  1833     06AC                     u2567:
  1834     06AC  0BA7               	decfsz	??_time_display_screen,f
  1835     06AD  2EAC               	goto	u2567
  1836     06AE  0BA8               	decfsz	??_time_display_screen+1,f
  1837     06AF  2EAC               	goto	u2567
  1838     06B0  0BA9               	decfsz	??_time_display_screen+2,f
  1839     06B1  2EAC               	goto	u2567
  1840     06B2                     l2658:
  1841                           
  1842                           ;main.c: 190: void power_on_screen(void)
  1843     06B2  120A  158A  2684  120A  118A  	fcall	_clear_screen
  1844     06B7                     l2660:
  1845                           
  1846                           ;main.c: 191: {
  1847     06B7  1283               	bcf	3,5	;RP0=0, select bank0
  1848     06B8  1303               	bcf	3,6	;RP1=0, select bank0
  1849     06B9  1087               	bcf	7,1	;volatile
  1850     06BA                     l2662:
  1851                           
  1852                           ;main.c: 192:     unsigned char i;
  1853     06BA  1107               	bcf	7,2	;volatile
  1854     06BB                     l2664:
  1855                           
  1856                           ;main.c: 194:    for (i = 0; i < 16; i++)
  1857     06BB  1112               	bcf	18,2	;volatile
  1858     06BC                     l2666:
  1859                           
  1860                           ;main.c: 195:    {
  1861     06BC  3002               	movlw	2
  1862     06BD  00C1               	movwf	_operation_flag
  1863     06BE  3000               	movlw	0
  1864     06BF  00C2               	movwf	_operation_flag+1
  1865     06C0                     l98:
  1866     06C0  0008               	return
  1867     06C1                     __end_of_time_display_screen:
  1868                           
  1869                           	psect	text2
  1870     02E8                     __ptext2:	
  1871 ;; *************** function _set_time *****************
  1872 ;; Defined at:
  1873 ;;		line 328 in file "main.c"
  1874 ;; Parameters:    Size  Location     Type
  1875 ;;  key             1    wreg     unsigned char 
  1876 ;;  reset_flag      2    7[BANK0 ] int 
  1877 ;; Auto vars:     Size  Location     Type
  1878 ;;  key             1   11[BANK0 ] unsigned char 
  1879 ;; Return value:  Size  Location     Type
  1880 ;;                  1    wreg      void 
  1881 ;; Registers used:
  1882 ;;		wreg, fsr0l, fsr0h, status,2, status,0, btemp+1, pclath, cstack
  1883 ;; Tracked objects:
  1884 ;;		On entry : 0/0
  1885 ;;		On exit  : 0/0
  1886 ;;		Unchanged: 0/0
  1887 ;; Data sizes:     COMMON   BANK0   BANK1   BANK3   BANK2
  1888 ;;      Params:         0       2       0       0       0
  1889 ;;      Locals:         0       1       0       0       0
  1890 ;;      Temps:          0       2       0       0       0
  1891 ;;      Totals:         0       5       0       0       0
  1892 ;;Total ram usage:        5 bytes
  1893 ;; Hardware stack levels used: 1
  1894 ;; Hardware stack levels required when called: 3
  1895 ;; This function calls:
  1896 ;;		___awdiv
  1897 ;;		___awmod
  1898 ;;		___bmul
  1899 ;;		_clcd_print
  1900 ;;		_clcd_putch
  1901 ;;		_clear_screen
  1902 ;; This function is called by:
  1903 ;;		_main
  1904 ;; This function uses a non-reentrant model
  1905 ;;
  1906                           
  1907     02E8                     _set_time:	
  1908                           ;psect for function _set_time
  1909                           
  1910                           
  1911                           ;incstack = 0
  1912                           ; Regs used in _set_time: [wreg-fsr0h+status,2+status,0+btemp+1+pclath+cstack]
  1913                           ;set_time@key stored from wreg
  1914     02E8  1283               	bcf	3,5	;RP0=0, select bank0
  1915     02E9  1303               	bcf	3,6	;RP1=0, select bank0
  1916     02EA  00AB               	movwf	set_time@key
  1917     02EB                     l2476:
  1918                           
  1919                           ;main.c: 328:     clcd_print("TIME- ", (0xC0 + 0));;main.c: 329: ;main.c: 330:     clcd_
      +                          print("*:CLEAR  #:ENTER", (0xD0 + 0));;main.c: 331: ;main.c: 332:     }
  1920     02EB  3010               	movlw	16
  1921     02EC  0627               	xorwf	set_time@reset_flag,w
  1922     02ED  0428               	iorwf	set_time@reset_flag+1,w
  1923     02EE  1D03               	btfss	3,2
  1924     02EF  2AF1               	goto	u2101
  1925     02F0  2AF2               	goto	u2100
  1926     02F1                     u2101:
  1927     02F1  2B13               	goto	l2488
  1928     02F2                     u2100:
  1929     02F2                     l2478:
  1930                           
  1931                           ;main.c: 333: ;main.c: 334:     if ((key != '*') && (key != '#') && (key != 0xFF))
  1932     02F2  01BA               	clrf	set_time@key_count
  1933                           
  1934                           ;main.c: 335:     {
  1935     02F3  01C0               	clrf	_sec
  1936                           
  1937                           ;main.c: 336: 
  1938     02F4  01BF               	clrf	_min
  1939                           
  1940                           ;main.c: 337:         key_count++;
  1941     02F5  01B9               	clrf	set_time@blink_pos
  1942                           
  1943                           ;main.c: 338: 
  1944     02F6  01B4               	clrf	set_time@wait
  1945     02F7  01B5               	clrf	set_time@wait+1
  1946                           
  1947                           ;main.c: 339:         if(key_count <= 2)
  1948     02F8  01B8               	clrf	set_time@blink
  1949     02F9                     l2480:
  1950                           
  1951                           ;main.c: 340:         {
  1952     02F9  30FF               	movlw	255
  1953     02FA  00AB               	movwf	set_time@key
  1954     02FB                     l2482:
  1955                           
  1956                           ;main.c: 341:             sec = sec*10 + key;
  1957     02FB  3080               	movlw	128
  1958     02FC  00F6               	movwf	clcd_print@addr
  1959     02FD  3023               	movlw	(low ((STR_19-__stringbase)| (0+32768)))& (0+255)
  1960     02FE  120A  158A  270A  120A  118A  	fcall	_clcd_print
  1961     0303                     l2484:
  1962                           
  1963                           ;main.c: 342:             blink_pos = 0;
  1964     0303  30C0               	movlw	192
  1965     0304  00F6               	movwf	clcd_print@addr
  1966     0305  30E2               	movlw	(low ((STR_20-__stringbase)| (0+32768)))& (0+255)
  1967     0306  120A  158A  270A  120A  118A  	fcall	_clcd_print
  1968     030B                     l2486:
  1969                           
  1970                           ;main.c: 344:         }
  1971     030B  30D0               	movlw	208
  1972     030C  00F6               	movwf	clcd_print@addr
  1973     030D  3034               	movlw	(low ((STR_15-__stringbase)| (0+32768)))& (0+255)
  1974     030E  120A  158A  270A  120A  118A  	fcall	_clcd_print
  1975     0313                     l2488:
  1976                           
  1977                           ;main.c: 348:             blink_pos = 1;
  1978     0313  302A               	movlw	42
  1979     0314  1283               	bcf	3,5	;RP0=0, select bank0
  1980     0315  1303               	bcf	3,6	;RP1=0, select bank0
  1981     0316  062B               	xorwf	set_time@key,w
  1982     0317  1903               	btfsc	3,2
  1983     0318  2B1A               	goto	u2111
  1984     0319  2B1B               	goto	u2110
  1985     031A                     u2111:
  1986     031A  2B59               	goto	l2510
  1987     031B                     u2110:
  1988     031B                     l2490:
  1989     031B  3023               	movlw	35
  1990     031C  062B               	xorwf	set_time@key,w
  1991     031D  1903               	btfsc	3,2
  1992     031E  2B20               	goto	u2121
  1993     031F  2B21               	goto	u2120
  1994     0320                     u2121:
  1995     0320  2B59               	goto	l2510
  1996     0321                     u2120:
  1997     0321                     l2492:
  1998     0321  0A2B               	incf	set_time@key,w
  1999     0322  1903               	btfsc	3,2
  2000     0323  2B25               	goto	u2131
  2001     0324  2B26               	goto	u2130
  2002     0325                     u2131:
  2003     0325  2B59               	goto	l2510
  2004     0326                     u2130:
  2005     0326                     l2494:
  2006                           
  2007                           ;main.c: 349:         };main.c: 351:     }
  2008     0326  3001               	movlw	1
  2009     0327  00FF               	movwf	btemp+1
  2010     0328  087F               	movf	btemp+1,w
  2011     0329  07BA               	addwf	set_time@key_count,f
  2012     032A                     l2496:
  2013                           
  2014                           ;main.c: 353:     {
  2015     032A  3003               	movlw	3
  2016     032B  023A               	subwf	set_time@key_count,w
  2017     032C  1803               	skipnc
  2018     032D  2B2F               	goto	u2141
  2019     032E  2B30               	goto	u2140
  2020     032F                     u2141:
  2021     032F  2B3E               	goto	l2502
  2022     0330                     u2140:
  2023     0330                     l2498:
  2024                           
  2025                           ;main.c: 354:       if( blink_pos == 0);main.c: 355:       {
  2026     0330  300A               	movlw	10
  2027     0331  00F2               	movwf	___bmul@multiplicand
  2028     0332  0840               	movf	_sec,w
  2029     0333  120A  118A  27E7  120A  118A  	fcall	___bmul
  2030     0338  1283               	bcf	3,5	;RP0=0, select bank0
  2031     0339  1303               	bcf	3,6	;RP1=0, select bank0
  2032     033A  072B               	addwf	set_time@key,w
  2033     033B  00C0               	movwf	_sec
  2034     033C                     l2500:
  2035                           
  2036                           ;main.c: 356:           sec = 0;
  2037     033C  01B9               	clrf	set_time@blink_pos
  2038                           
  2039                           ;main.c: 358:       }
  2040     033D  2B83               	goto	l2532
  2041     033E                     l2502:
  2042     033E  3003               	movlw	3
  2043     033F  023A               	subwf	set_time@key_count,w
  2044     0340  1C03               	skipc
  2045     0341  2B43               	goto	u2151
  2046     0342  2B44               	goto	u2150
  2047     0343                     u2151:
  2048     0343  2B83               	goto	l2532
  2049     0344                     u2150:
  2050     0344                     l2504:
  2051     0344  3005               	movlw	5
  2052     0345  023A               	subwf	set_time@key_count,w
  2053     0346  1803               	skipnc
  2054     0347  2B49               	goto	u2161
  2055     0348  2B4A               	goto	u2160
  2056     0349                     u2161:
  2057     0349  2B83               	goto	l2532
  2058     034A                     u2160:
  2059     034A                     l2506:
  2060                           
  2061                           ;main.c: 360:       {;main.c: 361:         min = 0;
  2062     034A  300A               	movlw	10
  2063     034B  00F2               	movwf	___bmul@multiplicand
  2064     034C  083F               	movf	_min,w
  2065     034D  120A  118A  27E7  120A  118A  	fcall	___bmul
  2066     0352  1283               	bcf	3,5	;RP0=0, select bank0
  2067     0353  1303               	bcf	3,6	;RP1=0, select bank0
  2068     0354  072B               	addwf	set_time@key,w
  2069     0355  00BF               	movwf	_min
  2070     0356                     l2508:
  2071                           
  2072                           ;main.c: 362:         key_count = 2;
  2073     0356  01B9               	clrf	set_time@blink_pos
  2074     0357  0AB9               	incf	set_time@blink_pos,f
  2075     0358  2B83               	goto	l2532
  2076     0359                     l2510:
  2077     0359  302A               	movlw	42
  2078     035A  062B               	xorwf	set_time@key,w
  2079     035B  1D03               	btfss	3,2
  2080     035C  2B5E               	goto	u2171
  2081     035D  2B5F               	goto	u2170
  2082     035E                     u2171:
  2083     035E  2B70               	goto	l2522
  2084     035F                     u2170:
  2085     035F                     l2512:
  2086                           
  2087                           ;main.c: 367:         clear_screen();;main.c: 368:         operation_flag = 0x07;
  2088     035F  0839               	movf	set_time@blink_pos,w
  2089     0360  1D03               	btfss	3,2
  2090     0361  2B63               	goto	u2181
  2091     0362  2B64               	goto	u2180
  2092     0363                     u2181:
  2093     0363  2B67               	goto	l2516
  2094     0364                     u2180:
  2095     0364                     l2514:
  2096                           
  2097                           ;main.c: 369:         RC2 = 1;;main.c: 370: 
  2098     0364  01C0               	clrf	_sec
  2099                           
  2100                           ;main.c: 371:         TMR2ON = 1;
  2101     0365  01BA               	clrf	set_time@key_count
  2102                           
  2103                           ;main.c: 372:     }
  2104     0366  2B83               	goto	l2532
  2105     0367                     l2516:
  2106     0367  0339               	decf	set_time@blink_pos,w
  2107     0368  1D03               	btfss	3,2
  2108     0369  2B6B               	goto	u2191
  2109     036A  2B6C               	goto	u2190
  2110     036B                     u2191:
  2111     036B  2B83               	goto	l2532
  2112     036C                     u2190:
  2113     036C                     l2518:
  2114                           
  2115                           ;main.c: 374:     if(wait++ == 15);main.c: 375:     {
  2116     036C  01BF               	clrf	_min
  2117     036D                     l2520:
  2118                           
  2119                           ;main.c: 376:       wait = 0;
  2120     036D  3002               	movlw	2
  2121     036E  00BA               	movwf	set_time@key_count
  2122     036F  2B83               	goto	l2532
  2123     0370                     l2522:
  2124     0370  3023               	movlw	35
  2125     0371  062B               	xorwf	set_time@key,w
  2126     0372  1D03               	btfss	3,2
  2127     0373  2B75               	goto	u2201
  2128     0374  2B76               	goto	u2200
  2129     0375                     u2201:
  2130     0375  2B83               	goto	l2532
  2131     0376                     u2200:
  2132     0376                     l2524:
  2133                           
  2134                           ;main.c: 380:     clcd_putch( min/10 + '0', (0xC0 + 6));;main.c: 381:     clcd_putch( mi
      +                          n%10 + '0', (0xC0 + 7));
  2135     0376  120A  158A  2684  120A  118A  	fcall	_clear_screen
  2136     037B                     l2526:
  2137                           
  2138                           ;main.c: 382:     clcd_putch(':', (0xC0 + 8));
  2139     037B  3007               	movlw	7
  2140     037C  1283               	bcf	3,5	;RP0=0, select bank0
  2141     037D  1303               	bcf	3,6	;RP1=0, select bank0
  2142     037E  00C1               	movwf	_operation_flag
  2143     037F  3000               	movlw	0
  2144     0380  00C2               	movwf	_operation_flag+1
  2145     0381                     l2528:
  2146                           
  2147                           ;main.c: 383: 
  2148     0381  1507               	bsf	7,2	;volatile
  2149     0382                     l2530:
  2150                           
  2151                           ;main.c: 385:     clcd_putch( sec/10 + '0', (0xC0 + 9));
  2152     0382  1512               	bsf	18,2	;volatile
  2153     0383                     l2532:
  2154                           
  2155                           ;main.c: 388: 
  2156     0383  3001               	movlw	1
  2157     0384  07B4               	addwf	set_time@wait,f
  2158     0385  1803               	skipnc
  2159     0386  0AB5               	incf	set_time@wait+1,f
  2160     0387  3000               	movlw	0
  2161     0388  07B5               	addwf	set_time@wait+1,f
  2162     0389  3010               	movlw	16
  2163     038A  0634               	xorwf	set_time@wait,w
  2164     038B  0435               	iorwf	set_time@wait+1,w
  2165     038C  1D03               	btfss	3,2
  2166     038D  2B8F               	goto	u2211
  2167     038E  2B90               	goto	u2210
  2168     038F                     u2211:
  2169     038F  2C12               	goto	l2548
  2170     0390                     u2210:
  2171     0390                     l2534:
  2172                           
  2173                           ;main.c: 389:      if(blink);main.c: 390:      {
  2174     0390  01B4               	clrf	set_time@wait
  2175     0391  01B5               	clrf	set_time@wait+1
  2176     0392                     l2536:
  2177                           
  2178                           ;main.c: 391:          switch(blink_pos)
  2179     0392  0838               	movf	set_time@blink,w
  2180     0393  1903               	btfsc	3,2
  2181     0394  2B96               	goto	u2221
  2182     0395  2B98               	goto	u2220
  2183     0396                     u2221:
  2184     0396  3001               	movlw	1
  2185     0397  2B99               	goto	u2230
  2186     0398                     u2220:
  2187     0398  3000               	movlw	0
  2188     0399                     u2230:
  2189     0399  00B8               	movwf	set_time@blink
  2190     039A                     l2538:
  2191                           
  2192                           ;main.c: 394:                  clcd_print("  ", (0xC0 + 9));
  2193     039A  30C6               	movlw	198
  2194     039B  00A6               	movwf	clcd_putch@addr
  2195     039C  300A               	movlw	10
  2196     039D  00F2               	movwf	___awdiv@divisor
  2197     039E  3000               	movlw	0
  2198     039F  00F3               	movwf	___awdiv@divisor+1
  2199     03A0  083F               	movf	_min,w
  2200     03A1  00A9               	movwf	??_set_time
  2201     03A2  01AA               	clrf	??_set_time+1
  2202     03A3  0829               	movf	??_set_time,w
  2203     03A4  00F4               	movwf	___awdiv@dividend
  2204     03A5  082A               	movf	??_set_time+1,w
  2205     03A6  00F5               	movwf	___awdiv@dividend+1
  2206     03A7  120A  118A  243D  120A  118A  	fcall	___awdiv
  2207     03AC  0872               	movf	?___awdiv,w
  2208     03AD  3E30               	addlw	48
  2209     03AE  120A  158A  2695  120A  118A  	fcall	_clcd_putch
  2210     03B3                     l2540:
  2211                           
  2212                           ;main.c: 395:                 break;
  2213     03B3  30C7               	movlw	199
  2214     03B4  1283               	bcf	3,5	;RP0=0, select bank0
  2215     03B5  1303               	bcf	3,6	;RP1=0, select bank0
  2216     03B6  00A6               	movwf	clcd_putch@addr
  2217     03B7  300A               	movlw	10
  2218     03B8  00A0               	movwf	___awmod@divisor
  2219     03B9  3000               	movlw	0
  2220     03BA  00A1               	movwf	___awmod@divisor+1
  2221     03BB  083F               	movf	_min,w
  2222     03BC  00A9               	movwf	??_set_time
  2223     03BD  01AA               	clrf	??_set_time+1
  2224     03BE  0829               	movf	??_set_time,w
  2225     03BF  00A2               	movwf	___awmod@dividend
  2226     03C0  082A               	movf	??_set_time+1,w
  2227     03C1  00A3               	movwf	___awmod@dividend+1
  2228     03C2  120A  118A  24A4  120A  118A  	fcall	___awmod
  2229     03C7  1283               	bcf	3,5	;RP0=0, select bank0
  2230     03C8  1303               	bcf	3,6	;RP1=0, select bank0
  2231     03C9  0820               	movf	?___awmod,w
  2232     03CA  3E30               	addlw	48
  2233     03CB  120A  158A  2695  120A  118A  	fcall	_clcd_putch
  2234     03D0                     l2542:
  2235                           
  2236                           ;main.c: 396:              case 1:
  2237     03D0  30C8               	movlw	200
  2238     03D1  1283               	bcf	3,5	;RP0=0, select bank0
  2239     03D2  1303               	bcf	3,6	;RP1=0, select bank0
  2240     03D3  00A6               	movwf	clcd_putch@addr
  2241     03D4  303A               	movlw	58
  2242     03D5  120A  158A  2695  120A  118A  	fcall	_clcd_putch
  2243     03DA                     l2544:
  2244                           
  2245                           ;main.c: 399:          }
  2246     03DA  30C9               	movlw	201
  2247     03DB  1283               	bcf	3,5	;RP0=0, select bank0
  2248     03DC  1303               	bcf	3,6	;RP1=0, select bank0
  2249     03DD  00A6               	movwf	clcd_putch@addr
  2250     03DE  300A               	movlw	10
  2251     03DF  00F2               	movwf	___awdiv@divisor
  2252     03E0  3000               	movlw	0
  2253     03E1  00F3               	movwf	___awdiv@divisor+1
  2254     03E2  0840               	movf	_sec,w
  2255     03E3  00A9               	movwf	??_set_time
  2256     03E4  01AA               	clrf	??_set_time+1
  2257     03E5  0829               	movf	??_set_time,w
  2258     03E6  00F4               	movwf	___awdiv@dividend
  2259     03E7  082A               	movf	??_set_time+1,w
  2260     03E8  00F5               	movwf	___awdiv@dividend+1
  2261     03E9  120A  118A  243D  120A  118A  	fcall	___awdiv
  2262     03EE  0872               	movf	?___awdiv,w
  2263     03EF  3E30               	addlw	48
  2264     03F0  120A  158A  2695  120A  118A  	fcall	_clcd_putch
  2265     03F5                     l2546:
  2266                           
  2267                           ;main.c: 400: 
  2268     03F5  30CA               	movlw	202
  2269     03F6  1283               	bcf	3,5	;RP0=0, select bank0
  2270     03F7  1303               	bcf	3,6	;RP1=0, select bank0
  2271     03F8  00A6               	movwf	clcd_putch@addr
  2272     03F9  300A               	movlw	10
  2273     03FA  00A0               	movwf	___awmod@divisor
  2274     03FB  3000               	movlw	0
  2275     03FC  00A1               	movwf	___awmod@divisor+1
  2276     03FD  0840               	movf	_sec,w
  2277     03FE  00A9               	movwf	??_set_time
  2278     03FF  01AA               	clrf	??_set_time+1
  2279     0400  0829               	movf	??_set_time,w
  2280     0401  00A2               	movwf	___awmod@dividend
  2281     0402  082A               	movf	??_set_time+1,w
  2282     0403  00A3               	movwf	___awmod@dividend+1
  2283     0404  120A  118A  24A4  120A  118A  	fcall	___awmod
  2284     0409  1283               	bcf	3,5	;RP0=0, select bank0
  2285     040A  1303               	bcf	3,6	;RP1=0, select bank0
  2286     040B  0820               	movf	?___awmod,w
  2287     040C  3E30               	addlw	48
  2288     040D  120A  158A  2695  120A  118A  	fcall	_clcd_putch
  2289     0412                     l2548:
  2290                           
  2291                           ;main.c: 403: 
  2292     0412  1283               	bcf	3,5	;RP0=0, select bank0
  2293     0413  1303               	bcf	3,6	;RP1=0, select bank0
  2294     0414  0838               	movf	set_time@blink,w
  2295     0415  1903               	btfsc	3,2
  2296     0416  2C18               	goto	u2241
  2297     0417  2C19               	goto	u2240
  2298     0418                     u2241:
  2299     0418  2C3C               	goto	l164
  2300     0419                     u2240:
  2301     0419  2C2C               	goto	l2558
  2302     041A                     l2552:
  2303     041A  30C9               	movlw	201
  2304     041B  00F6               	movwf	clcd_print@addr
  2305     041C  300F               	movlw	(low (((STR_7+14)-__stringbase)| (0+32768)))& (0+255)
  2306     041D  120A  158A  270A  120A  118A  	fcall	_clcd_print
  2307     0422  2C3C               	goto	l164
  2308     0423                     l2554:
  2309     0423  30C6               	movlw	198
  2310     0424  00F6               	movwf	clcd_print@addr
  2311     0425  300F               	movlw	(low (((STR_7+14)-__stringbase)| (0+32768)))& (0+255)
  2312     0426  120A  158A  270A  120A  118A  	fcall	_clcd_print
  2313     042B  2C3C               	goto	l164
  2314     042C                     l2558:
  2315     042C  0839               	movf	set_time@blink_pos,w
  2316     042D  00A9               	movwf	??_set_time
  2317     042E  01AA               	clrf	??_set_time+1
  2318                           
  2319                           ; Switch on 2 bytes has been partitioned into a top level switch of size 1, and 1 sub-sw
      +                          itches
  2320                           ; Switch size 1, requested type "simple"
  2321                           ; Number of cases is 1, Range of values is 0 to 0
  2322                           ; switch strategies available:
  2323                           ; Name         Instructions Cycles
  2324                           ; simple_byte            4     3 (average)
  2325                           ; direct_byte           11     8 (fixed)
  2326                           ; jumptable            260     6 (fixed)
  2327                           ;	Chosen strategy is simple_byte
  2328     042F  082A               	movf	??_set_time+1,w
  2329     0430  3A00               	xorlw	0	; case 0
  2330     0431  1903               	skipnz
  2331     0432  2C34               	goto	l2836
  2332     0433  2C3C               	goto	l164
  2333     0434                     l2836:
  2334                           
  2335                           ; Switch size 1, requested type "simple"
  2336                           ; Number of cases is 2, Range of values is 0 to 1
  2337                           ; switch strategies available:
  2338                           ; Name         Instructions Cycles
  2339                           ; simple_byte            7     4 (average)
  2340                           ; direct_byte           14     8 (fixed)
  2341                           ; jumptable            260     6 (fixed)
  2342                           ;	Chosen strategy is simple_byte
  2343     0434  0829               	movf	??_set_time,w
  2344     0435  3A00               	xorlw	0	; case 0
  2345     0436  1903               	skipnz
  2346     0437  2C1A               	goto	l2552
  2347     0438  3A01               	xorlw	1	; case 1
  2348     0439  1903               	skipnz
  2349     043A  2C23               	goto	l2554
  2350     043B  2C3C               	goto	l164
  2351     043C                     l164:
  2352     043C  0008               	return
  2353     043D                     __end_of_set_time:
  2354                           
  2355                           	psect	text3
  2356     0034                     __ptext3:	
  2357 ;; *************** function _set_temp *****************
  2358 ;; Defined at:
  2359 ;;		line 242 in file "main.c"
  2360 ;; Parameters:    Size  Location     Type
  2361 ;;  key             1    wreg     unsigned char 
  2362 ;;  reset_flag      2    7[BANK0 ] int 
  2363 ;; Auto vars:     Size  Location     Type
  2364 ;;  key             1   11[BANK0 ] unsigned char 
  2365 ;; Return value:  Size  Location     Type
  2366 ;;                  1    wreg      void 
  2367 ;; Registers used:
  2368 ;;		wreg, fsr0l, fsr0h, status,2, status,0, btemp+1, pclath, cstack
  2369 ;; Tracked objects:
  2370 ;;		On entry : 0/0
  2371 ;;		On exit  : 0/0
  2372 ;;		Unchanged: 0/0
  2373 ;; Data sizes:     COMMON   BANK0   BANK1   BANK3   BANK2
  2374 ;;      Params:         0       2       0       0       0
  2375 ;;      Locals:         0       1       0       0       0
  2376 ;;      Temps:          0       2       0       0       0
  2377 ;;      Totals:         0       5       0       0       0
  2378 ;;Total ram usage:        5 bytes
  2379 ;; Hardware stack levels used: 1
  2380 ;; Hardware stack levels required when called: 3
  2381 ;; This function calls:
  2382 ;;		___awdiv
  2383 ;;		___awmod
  2384 ;;		___bmul
  2385 ;;		_clcd_print
  2386 ;;		_clcd_putch
  2387 ;;		_clear_screen
  2388 ;; This function is called by:
  2389 ;;		_main
  2390 ;; This function uses a non-reentrant model
  2391 ;;
  2392                           
  2393     0034                     _set_temp:	
  2394                           ;psect for function _set_temp
  2395                           
  2396                           
  2397                           ;incstack = 0
  2398                           ; Regs used in _set_temp: [wreg-fsr0h+status,2+status,0+btemp+1+pclath+cstack]
  2399                           ;set_temp@key stored from wreg
  2400     0034  1283               	bcf	3,5	;RP0=0, select bank0
  2401     0035  1303               	bcf	3,6	;RP1=0, select bank0
  2402     0036  00AB               	movwf	set_temp@key
  2403     0037                     l2564:
  2404                           
  2405                           ;main.c: 242: ;main.c: 243:         clcd_print("*:CLEAR  #:ENTER", (0xD0 + 0));;main.c: 
      +                          244:          };main.c: 245: ;main.c: 246: 
  2406     0037  3010               	movlw	16
  2407     0038  0627               	xorwf	set_temp@reset_flag,w
  2408     0039  0428               	iorwf	set_temp@reset_flag+1,w
  2409     003A  1D03               	btfss	3,2
  2410     003B  283D               	goto	u2251
  2411     003C  283E               	goto	u2250
  2412     003D                     u2251:
  2413     003D  285E               	goto	l2576
  2414     003E                     u2250:
  2415     003E                     l2566:
  2416                           
  2417                           ;main.c: 247:     if ((key != '*') && (key != '#') && (key != 0xFF));main.c: 248:     {
  2418     003E  01BD               	clrf	set_temp@key_count
  2419                           
  2420                           ;main.c: 249: 
  2421     003F  01B6               	clrf	set_temp@wait
  2422     0040  01B7               	clrf	set_temp@wait+1
  2423                           
  2424                           ;main.c: 250:         key_count++;
  2425     0041  01BC               	clrf	set_temp@blink
  2426                           
  2427                           ;main.c: 251: 
  2428     0042  01BE               	clrf	_flag
  2429                           
  2430                           ;main.c: 252:         if(key_count <= 3)
  2431     0043  01BB               	clrf	set_temp@temp
  2432     0044                     l2568:
  2433                           
  2434                           ;main.c: 253:         {
  2435     0044  30FF               	movlw	255
  2436     0045  00AB               	movwf	set_temp@key
  2437     0046                     l2570:
  2438                           
  2439                           ;main.c: 254:             temp = temp*10 + key;
  2440     0046  3080               	movlw	128
  2441     0047  00F6               	movwf	clcd_print@addr
  2442     0048  3074               	movlw	(low ((STR_13-__stringbase)| (0+32768)))& (0+255)
  2443     0049  120A  158A  270A  120A  118A  	fcall	_clcd_print
  2444     004E                     l2572:
  2445                           
  2446                           ;main.c: 255: 
  2447     004E  30C0               	movlw	192
  2448     004F  00F6               	movwf	clcd_print@addr
  2449     0050  30BA               	movlw	(low ((STR_14-__stringbase)| (0+32768)))& (0+255)
  2450     0051  120A  158A  270A  120A  118A  	fcall	_clcd_print
  2451     0056                     l2574:
  2452                           
  2453                           ;main.c: 257: 
  2454     0056  30D0               	movlw	208
  2455     0057  00F6               	movwf	clcd_print@addr
  2456     0058  3034               	movlw	(low ((STR_15-__stringbase)| (0+32768)))& (0+255)
  2457     0059  120A  158A  270A  120A  118A  	fcall	_clcd_print
  2458     005E                     l2576:
  2459                           
  2460                           ;main.c: 261:         temp =0;
  2461     005E  302A               	movlw	42
  2462     005F  1283               	bcf	3,5	;RP0=0, select bank0
  2463     0060  1303               	bcf	3,6	;RP1=0, select bank0
  2464     0061  062B               	xorwf	set_temp@key,w
  2465     0062  1903               	btfsc	3,2
  2466     0063  2865               	goto	u2261
  2467     0064  2866               	goto	u2260
  2468     0065                     u2261:
  2469     0065  2888               	goto	l2588
  2470     0066                     u2260:
  2471     0066                     l2578:
  2472     0066  3023               	movlw	35
  2473     0067  062B               	xorwf	set_temp@key,w
  2474     0068  1903               	btfsc	3,2
  2475     0069  286B               	goto	u2271
  2476     006A  286C               	goto	u2270
  2477     006B                     u2271:
  2478     006B  2888               	goto	l2588
  2479     006C                     u2270:
  2480     006C                     l2580:
  2481     006C  0A2B               	incf	set_temp@key,w
  2482     006D  1903               	btfsc	3,2
  2483     006E  2870               	goto	u2281
  2484     006F  2871               	goto	u2280
  2485     0070                     u2281:
  2486     0070  2888               	goto	l2588
  2487     0071                     u2280:
  2488     0071                     l2582:
  2489                           
  2490                           ;main.c: 262:         key_count = 0;;main.c: 264:     else if(key == '#')
  2491     0071  3001               	movlw	1
  2492     0072  00FF               	movwf	btemp+1
  2493     0073  087F               	movf	btemp+1,w
  2494     0074  07BD               	addwf	set_temp@key_count,f
  2495     0075                     l2584:
  2496                           
  2497                           ;main.c: 266:         clear_screen();
  2498     0075  3004               	movlw	4
  2499     0076  023D               	subwf	set_temp@key_count,w
  2500     0077  1803               	skipnc
  2501     0078  287A               	goto	u2291
  2502     0079  287B               	goto	u2290
  2503     007A                     u2291:
  2504     007A  2908               	goto	l2612
  2505     007B                     u2290:
  2506     007B                     l2586:
  2507                           
  2508                           ;main.c: 267: ;main.c: 268:         clcd_print("  Pre-Heating ", (0x80 + 0));
  2509     007B  300A               	movlw	10
  2510     007C  00F2               	movwf	___bmul@multiplicand
  2511     007D  083B               	movf	set_temp@temp,w
  2512     007E  120A  118A  27E7  120A  118A  	fcall	___bmul
  2513     0083  1283               	bcf	3,5	;RP0=0, select bank0
  2514     0084  1303               	bcf	3,6	;RP1=0, select bank0
  2515     0085  072B               	addwf	set_temp@key,w
  2516     0086  00BB               	movwf	set_temp@temp
  2517     0087  2908               	goto	l2612
  2518     0088                     l2588:
  2519     0088  302A               	movlw	42
  2520     0089  062B               	xorwf	set_temp@key,w
  2521     008A  1D03               	btfss	3,2
  2522     008B  288D               	goto	u2301
  2523     008C  288E               	goto	u2300
  2524     008D                     u2301:
  2525     008D  2891               	goto	l2592
  2526     008E                     u2300:
  2527     008E                     l2590:
  2528                           
  2529                           ;main.c: 274: ;main.c: 275: 
  2530     008E  01BB               	clrf	set_temp@temp
  2531                           
  2532                           ;main.c: 276: 
  2533     008F  01BD               	clrf	set_temp@key_count
  2534                           
  2535                           ;main.c: 277:     clcd_putch((sec/10)%10 + '0', (0x90 + 12));
  2536     0090  2908               	goto	l2612
  2537     0091                     l2592:
  2538     0091  3023               	movlw	35
  2539     0092  062B               	xorwf	set_temp@key,w
  2540     0093  1D03               	btfss	3,2
  2541     0094  2896               	goto	u2311
  2542     0095  2897               	goto	u2310
  2543     0096                     u2311:
  2544     0096  2908               	goto	l2612
  2545     0097                     u2310:
  2546     0097                     l2594:
  2547                           
  2548                           ;main.c: 279:     };main.c: 280: 
  2549     0097  120A  158A  2684  120A  118A  	fcall	_clear_screen
  2550     009C                     l2596:
  2551                           
  2552                           ;main.c: 282:         if(sec == 0)
  2553     009C  3080               	movlw	128
  2554     009D  00F6               	movwf	clcd_print@addr
  2555     009E  3065               	movlw	(low ((STR_16-__stringbase)| (0+32768)))& (0+255)
  2556     009F  120A  158A  270A  120A  118A  	fcall	_clcd_print
  2557     00A4                     l2598:
  2558                           
  2559                           ;main.c: 283:         {
  2560     00A4  3090               	movlw	144
  2561     00A5  00F6               	movwf	clcd_print@addr
  2562     00A6  308F               	movlw	(low ((STR_17-__stringbase)| (0+32768)))& (0+255)
  2563     00A7  120A  158A  270A  120A  118A  	fcall	_clcd_print
  2564     00AC                     l2600:
  2565                           
  2566                           ;main.c: 284:             flag = 1;
  2567     00AC  1283               	bcf	3,5	;RP0=0, select bank0
  2568     00AD  1303               	bcf	3,6	;RP1=0, select bank0
  2569     00AE  1512               	bsf	18,2	;volatile
  2570     00AF                     l2602:
  2571                           
  2572                           ;main.c: 285:             TMR2ON = 0;
  2573     00AF  3012               	movlw	18
  2574     00B0  00C0               	movwf	_sec
  2575                           
  2576                           ;main.c: 286: 
  2577     00B1  28F9               	goto	l2606
  2578     00B2                     l2604:
  2579                           
  2580                           ;main.c: 287: ;main.c: 291: 
  2581     00B2  309C               	movlw	156
  2582     00B3  00A6               	movwf	clcd_putch@addr
  2583     00B4  300A               	movlw	10
  2584     00B5  00A0               	movwf	___awmod@divisor
  2585     00B6  3000               	movlw	0
  2586     00B7  00A1               	movwf	___awmod@divisor+1
  2587     00B8  300A               	movlw	10
  2588     00B9  00F2               	movwf	___awdiv@divisor
  2589     00BA  3000               	movlw	0
  2590     00BB  00F3               	movwf	___awdiv@divisor+1
  2591     00BC  0840               	movf	_sec,w
  2592     00BD  00A9               	movwf	??_set_temp
  2593     00BE  01AA               	clrf	??_set_temp+1
  2594     00BF  0829               	movf	??_set_temp,w
  2595     00C0  00F4               	movwf	___awdiv@dividend
  2596     00C1  082A               	movf	??_set_temp+1,w
  2597     00C2  00F5               	movwf	___awdiv@dividend+1
  2598     00C3  120A  118A  243D  120A  118A  	fcall	___awdiv
  2599     00C8  0873               	movf	?___awdiv+1,w
  2600     00C9  1283               	bcf	3,5	;RP0=0, select bank0
  2601     00CA  1303               	bcf	3,6	;RP1=0, select bank0
  2602     00CB  00A3               	movwf	___awmod@dividend+1
  2603     00CC  0872               	movf	?___awdiv,w
  2604     00CD  00A2               	movwf	___awmod@dividend
  2605     00CE  120A  118A  24A4  120A  118A  	fcall	___awmod
  2606     00D3  1283               	bcf	3,5	;RP0=0, select bank0
  2607     00D4  1303               	bcf	3,6	;RP1=0, select bank0
  2608     00D5  0820               	movf	?___awmod,w
  2609     00D6  3E30               	addlw	48
  2610     00D7  120A  158A  2695  120A  118A  	fcall	_clcd_putch
  2611                           
  2612                           ;main.c: 292: 
  2613     00DC  309D               	movlw	157
  2614     00DD  1283               	bcf	3,5	;RP0=0, select bank0
  2615     00DE  1303               	bcf	3,6	;RP1=0, select bank0
  2616     00DF  00A6               	movwf	clcd_putch@addr
  2617     00E0  300A               	movlw	10
  2618     00E1  00A0               	movwf	___awmod@divisor
  2619     00E2  3000               	movlw	0
  2620     00E3  00A1               	movwf	___awmod@divisor+1
  2621     00E4  0840               	movf	_sec,w
  2622     00E5  00A9               	movwf	??_set_temp
  2623     00E6  01AA               	clrf	??_set_temp+1
  2624     00E7  0829               	movf	??_set_temp,w
  2625     00E8  00A2               	movwf	___awmod@dividend
  2626     00E9  082A               	movf	??_set_temp+1,w
  2627     00EA  00A3               	movwf	___awmod@dividend+1
  2628     00EB  120A  118A  24A4  120A  118A  	fcall	___awmod
  2629     00F0  1283               	bcf	3,5	;RP0=0, select bank0
  2630     00F1  1303               	bcf	3,6	;RP1=0, select bank0
  2631     00F2  0820               	movf	?___awmod,w
  2632     00F3  3E30               	addlw	48
  2633     00F4  120A  158A  2695  120A  118A  	fcall	_clcd_putch
  2634     00F9                     l2606:
  2635                           
  2636                           ;main.c: 286: 
  2637     00F9  1283               	bcf	3,5	;RP0=0, select bank0
  2638     00FA  1303               	bcf	3,6	;RP1=0, select bank0
  2639     00FB  0840               	movf	_sec,w
  2640     00FC  1D03               	btfss	3,2
  2641     00FD  28FF               	goto	u2321
  2642     00FE  2900               	goto	u2320
  2643     00FF                     u2321:
  2644     00FF  28B2               	goto	l2604
  2645     0100                     u2320:
  2646     0100                     l2608:
  2647                           
  2648                           ;main.c: 296:       wait = 0;
  2649     0100  0840               	movf	_sec,w
  2650     0101  1D03               	btfss	3,2
  2651     0102  2904               	goto	u2331
  2652     0103  2905               	goto	u2330
  2653     0104                     u2331:
  2654     0104  2908               	goto	l2612
  2655     0105                     u2330:
  2656     0105                     l2610:
  2657                           
  2658                           ;main.c: 297:       blink = !blink;;main.c: 298: 
  2659     0105  01BE               	clrf	_flag
  2660     0106  0ABE               	incf	_flag,f
  2661                           
  2662                           ;main.c: 299: 
  2663     0107  1112               	bcf	18,2	;volatile
  2664     0108                     l2612:
  2665                           
  2666                           ;main.c: 308: 
  2667     0108  3001               	movlw	1
  2668     0109  07B6               	addwf	set_temp@wait,f
  2669     010A  1803               	skipnc
  2670     010B  0AB7               	incf	set_temp@wait+1,f
  2671     010C  3000               	movlw	0
  2672     010D  07B7               	addwf	set_temp@wait+1,f
  2673     010E  3010               	movlw	16
  2674     010F  0636               	xorwf	set_temp@wait,w
  2675     0110  0437               	iorwf	set_temp@wait+1,w
  2676     0111  1D03               	btfss	3,2
  2677     0112  2914               	goto	u2341
  2678     0113  2915               	goto	u2340
  2679     0114                     u2341:
  2680     0114  2981               	goto	l2624
  2681     0115                     u2340:
  2682     0115                     l2614:
  2683                           
  2684                           ;main.c: 309: ;main.c: 310: 
  2685     0115  01B6               	clrf	set_temp@wait
  2686     0116  01B7               	clrf	set_temp@wait+1
  2687     0117                     l2616:
  2688                           
  2689                           ;main.c: 311:     }
  2690     0117  083C               	movf	set_temp@blink,w
  2691     0118  1903               	btfsc	3,2
  2692     0119  291B               	goto	u2351
  2693     011A  291D               	goto	u2350
  2694     011B                     u2351:
  2695     011B  3001               	movlw	1
  2696     011C  291E               	goto	u2360
  2697     011D                     u2350:
  2698     011D  3000               	movlw	0
  2699     011E                     u2360:
  2700     011E  00BC               	movwf	set_temp@blink
  2701     011F                     l2618:
  2702                           
  2703                           ;main.c: 314: void set_time(unsigned char key, int reset_flag )
  2704     011F  30C8               	movlw	200
  2705     0120  00A6               	movwf	clcd_putch@addr
  2706     0121  3064               	movlw	100
  2707     0122  00F2               	movwf	___awdiv@divisor
  2708     0123  3000               	movlw	0
  2709     0124  00F3               	movwf	___awdiv@divisor+1
  2710     0125  083B               	movf	set_temp@temp,w
  2711     0126  00A9               	movwf	??_set_temp
  2712     0127  01AA               	clrf	??_set_temp+1
  2713     0128  0829               	movf	??_set_temp,w
  2714     0129  00F4               	movwf	___awdiv@dividend
  2715     012A  082A               	movf	??_set_temp+1,w
  2716     012B  00F5               	movwf	___awdiv@dividend+1
  2717     012C  120A  118A  243D  120A  118A  	fcall	___awdiv
  2718     0131  0872               	movf	?___awdiv,w
  2719     0132  3E30               	addlw	48
  2720     0133  120A  158A  2695  120A  118A  	fcall	_clcd_putch
  2721     0138                     l2620:
  2722                           
  2723                           ;main.c: 315: {
  2724     0138  30C9               	movlw	201
  2725     0139  1283               	bcf	3,5	;RP0=0, select bank0
  2726     013A  1303               	bcf	3,6	;RP1=0, select bank0
  2727     013B  00A6               	movwf	clcd_putch@addr
  2728     013C  300A               	movlw	10
  2729     013D  00A0               	movwf	___awmod@divisor
  2730     013E  3000               	movlw	0
  2731     013F  00A1               	movwf	___awmod@divisor+1
  2732     0140  300A               	movlw	10
  2733     0141  00F2               	movwf	___awdiv@divisor
  2734     0142  3000               	movlw	0
  2735     0143  00F3               	movwf	___awdiv@divisor+1
  2736     0144  083B               	movf	set_temp@temp,w
  2737     0145  00A9               	movwf	??_set_temp
  2738     0146  01AA               	clrf	??_set_temp+1
  2739     0147  0829               	movf	??_set_temp,w
  2740     0148  00F4               	movwf	___awdiv@dividend
  2741     0149  082A               	movf	??_set_temp+1,w
  2742     014A  00F5               	movwf	___awdiv@dividend+1
  2743     014B  120A  118A  243D  120A  118A  	fcall	___awdiv
  2744     0150  0873               	movf	?___awdiv+1,w
  2745     0151  1283               	bcf	3,5	;RP0=0, select bank0
  2746     0152  1303               	bcf	3,6	;RP1=0, select bank0
  2747     0153  00A3               	movwf	___awmod@dividend+1
  2748     0154  0872               	movf	?___awdiv,w
  2749     0155  00A2               	movwf	___awmod@dividend
  2750     0156  120A  118A  24A4  120A  118A  	fcall	___awmod
  2751     015B  1283               	bcf	3,5	;RP0=0, select bank0
  2752     015C  1303               	bcf	3,6	;RP1=0, select bank0
  2753     015D  0820               	movf	?___awmod,w
  2754     015E  3E30               	addlw	48
  2755     015F  120A  158A  2695  120A  118A  	fcall	_clcd_putch
  2756     0164                     l2622:
  2757                           
  2758                           ;main.c: 316:     static unsigned char key_count, blink_pos, blink;
  2759     0164  30CA               	movlw	202
  2760     0165  1283               	bcf	3,5	;RP0=0, select bank0
  2761     0166  1303               	bcf	3,6	;RP1=0, select bank0
  2762     0167  00A6               	movwf	clcd_putch@addr
  2763     0168  300A               	movlw	10
  2764     0169  00A0               	movwf	___awmod@divisor
  2765     016A  3000               	movlw	0
  2766     016B  00A1               	movwf	___awmod@divisor+1
  2767     016C  083B               	movf	set_temp@temp,w
  2768     016D  00A9               	movwf	??_set_temp
  2769     016E  01AA               	clrf	??_set_temp+1
  2770     016F  0829               	movf	??_set_temp,w
  2771     0170  00A2               	movwf	___awmod@dividend
  2772     0171  082A               	movf	??_set_temp+1,w
  2773     0172  00A3               	movwf	___awmod@dividend+1
  2774     0173  120A  118A  24A4  120A  118A  	fcall	___awmod
  2775     0178  1283               	bcf	3,5	;RP0=0, select bank0
  2776     0179  1303               	bcf	3,6	;RP1=0, select bank0
  2777     017A  0820               	movf	?___awmod,w
  2778     017B  3E30               	addlw	48
  2779     017C  120A  158A  2695  120A  118A  	fcall	_clcd_putch
  2780     0181                     l2624:
  2781                           
  2782                           ;main.c: 319:     {
  2783     0181  1283               	bcf	3,5	;RP0=0, select bank0
  2784     0182  1303               	bcf	3,6	;RP1=0, select bank0
  2785     0183  083C               	movf	set_temp@blink,w
  2786     0184  1903               	btfsc	3,2
  2787     0185  2987               	goto	u2371
  2788     0186  2988               	goto	u2370
  2789     0187                     u2371:
  2790     0187  2990               	goto	l135
  2791     0188                     u2370:
  2792     0188                     l2626:
  2793                           
  2794                           ;main.c: 320:        key_count = 0;;main.c: 321:        sec = 0;
  2795     0188  30C8               	movlw	200
  2796     0189  00F6               	movwf	clcd_print@addr
  2797     018A  300E               	movlw	(low (((STR_7+13)-__stringbase)| (0+32768)))& (0+255)
  2798     018B  120A  158A  270A  120A  118A  	fcall	_clcd_print
  2799     0190                     l135:
  2800     0190  0008               	return
  2801     0191                     __end_of_set_temp:
  2802                           
  2803                           	psect	text4
  2804     0E84                     __ptext4:	
  2805 ;; *************** function _clear_screen *****************
  2806 ;; Defined at:
  2807 ;;		line 199 in file "main.c"
  2808 ;; Parameters:    Size  Location     Type
  2809 ;;		None
  2810 ;; Auto vars:     Size  Location     Type
  2811 ;;		None
  2812 ;; Return value:  Size  Location     Type
  2813 ;;                  1    wreg      void 
  2814 ;; Registers used:
  2815 ;;		wreg, status,2, status,0, pclath, cstack
  2816 ;; Tracked objects:
  2817 ;;		On entry : 0/0
  2818 ;;		On exit  : 0/0
  2819 ;;		Unchanged: 0/0
  2820 ;; Data sizes:     COMMON   BANK0   BANK1   BANK3   BANK2
  2821 ;;      Params:         0       0       0       0       0
  2822 ;;      Locals:         0       0       0       0       0
  2823 ;;      Temps:          2       0       0       0       0
  2824 ;;      Totals:         2       0       0       0       0
  2825 ;;Total ram usage:        2 bytes
  2826 ;; Hardware stack levels used: 1
  2827 ;; Hardware stack levels required when called: 2
  2828 ;; This function calls:
  2829 ;;		_clcd_write
  2830 ;; This function is called by:
  2831 ;;		_main
  2832 ;;		_time_display_screen
  2833 ;;		_set_temp
  2834 ;;		_set_time
  2835 ;; This function uses a non-reentrant model
  2836 ;;
  2837                           
  2838     0E84                     _clear_screen:	
  2839                           ;psect for function _clear_screen
  2840                           
  2841     0E84                     l2376:	
  2842                           ;incstack = 0
  2843                           ; Regs used in _clear_screen: [wreg+status,2+status,0+pclath+cstack]
  2844                           
  2845                           
  2846                           ;main.c: 201: 
  2847     0E84  01F2               	clrf	clcd_write@mode
  2848     0E85  3001               	movlw	1
  2849     0E86  120A  158A  2767  120A  158A  	fcall	_clcd_write
  2850     0E8B                     l2378:
  2851                           
  2852                           ;main.c: 202: 
  2853     0E8B  3004               	movlw	4
  2854     0E8C  00F7               	movwf	??_clear_screen+1
  2855     0E8D  303D               	movlw	61
  2856     0E8E  00F6               	movwf	??_clear_screen
  2857     0E8F                     u2577:
  2858     0E8F  0BF6               	decfsz	??_clear_screen,f
  2859     0E90  2E8F               	goto	u2577
  2860     0E91  0BF7               	decfsz	??_clear_screen+1,f
  2861     0E92  2E8F               	goto	u2577
  2862     0E93  2E94               	nop2
  2863     0E94                     l101:
  2864     0E94  0008               	return
  2865     0E95                     __end_of_clear_screen:
  2866                           
  2867                           	psect	text5
  2868     07E7                     __ptext5:	
  2869 ;; *************** function ___bmul *****************
  2870 ;; Defined at:
  2871 ;;		line 4 in file "C:\Program Files\Microchip\xc8\v2.45\pic\sources\c99\common\Umul8.c"
  2872 ;; Parameters:    Size  Location     Type
  2873 ;;  multiplier      1    wreg     unsigned char 
  2874 ;;  multiplicand    1    2[COMMON] unsigned char 
  2875 ;; Auto vars:     Size  Location     Type
  2876 ;;  multiplier      1    4[COMMON] unsigned char 
  2877 ;;  product         1    3[COMMON] unsigned char 
  2878 ;; Return value:  Size  Location     Type
  2879 ;;                  1    wreg      unsigned char 
  2880 ;; Registers used:
  2881 ;;		wreg, status,2, status,0, btemp+1
  2882 ;; Tracked objects:
  2883 ;;		On entry : 0/0
  2884 ;;		On exit  : 0/0
  2885 ;;		Unchanged: 0/0
  2886 ;; Data sizes:     COMMON   BANK0   BANK1   BANK3   BANK2
  2887 ;;      Params:         1       0       0       0       0
  2888 ;;      Locals:         2       0       0       0       0
  2889 ;;      Temps:          0       0       0       0       0
  2890 ;;      Totals:         3       0       0       0       0
  2891 ;;Total ram usage:        3 bytes
  2892 ;; Hardware stack levels used: 1
  2893 ;; Hardware stack levels required when called: 1
  2894 ;; This function calls:
  2895 ;;		Nothing
  2896 ;; This function is called by:
  2897 ;;		_set_temp
  2898 ;;		_set_time
  2899 ;; This function uses a non-reentrant model
  2900 ;;
  2901                           
  2902     07E7                     ___bmul:	
  2903                           ;psect for function ___bmul
  2904                           
  2905                           
  2906                           ;incstack = 0
  2907                           ; Regs used in ___bmul: [wreg+status,2+status,0+btemp+1]
  2908                           ;___bmul@multiplier stored from wreg
  2909     07E7  00F4               	movwf	___bmul@multiplier
  2910     07E8                     l1770:
  2911     07E8  01F3               	clrf	___bmul@product
  2912     07E9                     l1772:
  2913     07E9  1C74               	btfss	___bmul@multiplier,0
  2914     07EA  2FEC               	goto	u1181
  2915     07EB  2FED               	goto	u1180
  2916     07EC                     u1181:
  2917     07EC  2FF1               	goto	l1776
  2918     07ED                     u1180:
  2919     07ED                     l1774:
  2920     07ED  0872               	movf	___bmul@multiplicand,w
  2921     07EE  00FF               	movwf	btemp+1
  2922     07EF  087F               	movf	btemp+1,w
  2923     07F0  07F3               	addwf	___bmul@product,f
  2924     07F1                     l1776:
  2925     07F1  1003               	clrc
  2926     07F2  0DF2               	rlf	___bmul@multiplicand,f
  2927     07F3                     l1778:
  2928     07F3  1003               	clrc
  2929     07F4  0CF4               	rrf	___bmul@multiplier,f
  2930     07F5                     l1780:
  2931     07F5  0874               	movf	___bmul@multiplier,w
  2932     07F6  1D03               	btfss	3,2
  2933     07F7  2FF9               	goto	u1191
  2934     07F8  2FFA               	goto	u1190
  2935     07F9                     u1191:
  2936     07F9  2FE9               	goto	l1772
  2937     07FA                     u1190:
  2938     07FA                     l1782:
  2939     07FA  0873               	movf	___bmul@product,w
  2940     07FB                     l404:
  2941     07FB  0008               	return
  2942     07FC                     __end_of___bmul:
  2943                           
  2944                           	psect	text6
  2945     04A4                     __ptext6:	
  2946 ;; *************** function ___awmod *****************
  2947 ;; Defined at:
  2948 ;;		line 5 in file "C:\Program Files\Microchip\xc8\v2.45\pic\sources\c99\common\awmod.c"
  2949 ;; Parameters:    Size  Location     Type
  2950 ;;  divisor         2    0[BANK0 ] int 
  2951 ;;  dividend        2    2[BANK0 ] int 
  2952 ;; Auto vars:     Size  Location     Type
  2953 ;;  sign            1    5[BANK0 ] unsigned char 
  2954 ;;  counter         1    4[BANK0 ] unsigned char 
  2955 ;; Return value:  Size  Location     Type
  2956 ;;                  2    0[BANK0 ] int 
  2957 ;; Registers used:
  2958 ;;		wreg, status,2, status,0, btemp+1
  2959 ;; Tracked objects:
  2960 ;;		On entry : 0/0
  2961 ;;		On exit  : 0/0
  2962 ;;		Unchanged: 0/0
  2963 ;; Data sizes:     COMMON   BANK0   BANK1   BANK3   BANK2
  2964 ;;      Params:         0       4       0       0       0
  2965 ;;      Locals:         0       2       0       0       0
  2966 ;;      Temps:          0       0       0       0       0
  2967 ;;      Totals:         0       6       0       0       0
  2968 ;;Total ram usage:        6 bytes
  2969 ;; Hardware stack levels used: 1
  2970 ;; Hardware stack levels required when called: 1
  2971 ;; This function calls:
  2972 ;;		Nothing
  2973 ;; This function is called by:
  2974 ;;		_time_display_screen
  2975 ;;		_set_temp
  2976 ;;		_set_time
  2977 ;; This function uses a non-reentrant model
  2978 ;;
  2979                           
  2980     04A4                     ___awmod:	
  2981                           ;psect for function ___awmod
  2982                           
  2983     04A4                     l2390:	
  2984                           ;incstack = 0
  2985                           ; Regs used in ___awmod: [wreg+status,2+status,0+btemp+1]
  2986                           
  2987     04A4  1283               	bcf	3,5	;RP0=0, select bank0
  2988     04A5  1303               	bcf	3,6	;RP1=0, select bank0
  2989     04A6  01A5               	clrf	___awmod@sign
  2990     04A7                     l2392:
  2991     04A7  1FA3               	btfss	___awmod@dividend+1,7
  2992     04A8  2CAA               	goto	u1991
  2993     04A9  2CAB               	goto	u1990
  2994     04AA                     u1991:
  2995     04AA  2CB2               	goto	l2398
  2996     04AB                     u1990:
  2997     04AB                     l2394:
  2998     04AB  09A2               	comf	___awmod@dividend,f
  2999     04AC  09A3               	comf	___awmod@dividend+1,f
  3000     04AD  0AA2               	incf	___awmod@dividend,f
  3001     04AE  1903               	skipnz
  3002     04AF  0AA3               	incf	___awmod@dividend+1,f
  3003     04B0                     l2396:
  3004     04B0  01A5               	clrf	___awmod@sign
  3005     04B1  0AA5               	incf	___awmod@sign,f
  3006     04B2                     l2398:
  3007     04B2  1FA1               	btfss	___awmod@divisor+1,7
  3008     04B3  2CB5               	goto	u2001
  3009     04B4  2CB6               	goto	u2000
  3010     04B5                     u2001:
  3011     04B5  2CBB               	goto	l2402
  3012     04B6                     u2000:
  3013     04B6                     l2400:
  3014     04B6  09A0               	comf	___awmod@divisor,f
  3015     04B7  09A1               	comf	___awmod@divisor+1,f
  3016     04B8  0AA0               	incf	___awmod@divisor,f
  3017     04B9  1903               	skipnz
  3018     04BA  0AA1               	incf	___awmod@divisor+1,f
  3019     04BB                     l2402:
  3020     04BB  0820               	movf	___awmod@divisor,w
  3021     04BC  0421               	iorwf	___awmod@divisor+1,w
  3022     04BD  1903               	btfsc	3,2
  3023     04BE  2CC0               	goto	u2011
  3024     04BF  2CC1               	goto	u2010
  3025     04C0                     u2011:
  3026     04C0  2CF0               	goto	l2420
  3027     04C1                     u2010:
  3028     04C1                     l2404:
  3029     04C1  01A4               	clrf	___awmod@counter
  3030     04C2  0AA4               	incf	___awmod@counter,f
  3031     04C3  2CCF               	goto	l2410
  3032     04C4                     l2406:
  3033     04C4  3001               	movlw	1
  3034     04C5                     u2025:
  3035     04C5  1003               	clrc
  3036     04C6  0DA0               	rlf	___awmod@divisor,f
  3037     04C7  0DA1               	rlf	___awmod@divisor+1,f
  3038     04C8  3EFF               	addlw	-1
  3039     04C9  1D03               	skipz
  3040     04CA  2CC5               	goto	u2025
  3041     04CB                     l2408:
  3042     04CB  3001               	movlw	1
  3043     04CC  00FF               	movwf	btemp+1
  3044     04CD  087F               	movf	btemp+1,w
  3045     04CE  07A4               	addwf	___awmod@counter,f
  3046     04CF                     l2410:
  3047     04CF  1FA1               	btfss	___awmod@divisor+1,7
  3048     04D0  2CD2               	goto	u2031
  3049     04D1  2CD3               	goto	u2030
  3050     04D2                     u2031:
  3051     04D2  2CC4               	goto	l2406
  3052     04D3                     u2030:
  3053     04D3                     l2412:
  3054     04D3  0821               	movf	___awmod@divisor+1,w
  3055     04D4  0223               	subwf	___awmod@dividend+1,w
  3056     04D5  1D03               	skipz
  3057     04D6  2CD9               	goto	u2045
  3058     04D7  0820               	movf	___awmod@divisor,w
  3059     04D8  0222               	subwf	___awmod@dividend,w
  3060     04D9                     u2045:
  3061     04D9  1C03               	skipc
  3062     04DA  2CDC               	goto	u2041
  3063     04DB  2CDD               	goto	u2040
  3064     04DC                     u2041:
  3065     04DC  2CE3               	goto	l2416
  3066     04DD                     u2040:
  3067     04DD                     l2414:
  3068     04DD  0820               	movf	___awmod@divisor,w
  3069     04DE  02A2               	subwf	___awmod@dividend,f
  3070     04DF  0821               	movf	___awmod@divisor+1,w
  3071     04E0  1C03               	skipc
  3072     04E1  03A3               	decf	___awmod@dividend+1,f
  3073     04E2  02A3               	subwf	___awmod@dividend+1,f
  3074     04E3                     l2416:
  3075     04E3  3001               	movlw	1
  3076     04E4                     u2055:
  3077     04E4  1003               	clrc
  3078     04E5  0CA1               	rrf	___awmod@divisor+1,f
  3079     04E6  0CA0               	rrf	___awmod@divisor,f
  3080     04E7  3EFF               	addlw	-1
  3081     04E8  1D03               	skipz
  3082     04E9  2CE4               	goto	u2055
  3083     04EA                     l2418:
  3084     04EA  3001               	movlw	1
  3085     04EB  02A4               	subwf	___awmod@counter,f
  3086     04EC  1D03               	btfss	3,2
  3087     04ED  2CEF               	goto	u2061
  3088     04EE  2CF0               	goto	u2060
  3089     04EF                     u2061:
  3090     04EF  2CD3               	goto	l2412
  3091     04F0                     u2060:
  3092     04F0                     l2420:
  3093     04F0  0825               	movf	___awmod@sign,w
  3094     04F1  1903               	btfsc	3,2
  3095     04F2  2CF4               	goto	u2071
  3096     04F3  2CF5               	goto	u2070
  3097     04F4                     u2071:
  3098     04F4  2CFA               	goto	l2424
  3099     04F5                     u2070:
  3100     04F5                     l2422:
  3101     04F5  09A2               	comf	___awmod@dividend,f
  3102     04F6  09A3               	comf	___awmod@dividend+1,f
  3103     04F7  0AA2               	incf	___awmod@dividend,f
  3104     04F8  1903               	skipnz
  3105     04F9  0AA3               	incf	___awmod@dividend+1,f
  3106     04FA                     l2424:
  3107     04FA  0823               	movf	___awmod@dividend+1,w
  3108     04FB  00A1               	movwf	?___awmod+1
  3109     04FC  0822               	movf	___awmod@dividend,w
  3110     04FD  00A0               	movwf	?___awmod
  3111     04FE                     l544:
  3112     04FE  0008               	return
  3113     04FF                     __end_of___awmod:
  3114                           
  3115                           	psect	text7
  3116     043D                     __ptext7:	
  3117 ;; *************** function ___awdiv *****************
  3118 ;; Defined at:
  3119 ;;		line 5 in file "C:\Program Files\Microchip\xc8\v2.45\pic\sources\c99\common\awdiv.c"
  3120 ;; Parameters:    Size  Location     Type
  3121 ;;  divisor         2    2[COMMON] int 
  3122 ;;  dividend        2    4[COMMON] int 
  3123 ;; Auto vars:     Size  Location     Type
  3124 ;;  quotient        2    8[COMMON] int 
  3125 ;;  sign            1    7[COMMON] unsigned char 
  3126 ;;  counter         1    6[COMMON] unsigned char 
  3127 ;; Return value:  Size  Location     Type
  3128 ;;                  2    2[COMMON] int 
  3129 ;; Registers used:
  3130 ;;		wreg, status,2, status,0, btemp+1
  3131 ;; Tracked objects:
  3132 ;;		On entry : 0/0
  3133 ;;		On exit  : 0/0
  3134 ;;		Unchanged: 0/0
  3135 ;; Data sizes:     COMMON   BANK0   BANK1   BANK3   BANK2
  3136 ;;      Params:         4       0       0       0       0
  3137 ;;      Locals:         4       0       0       0       0
  3138 ;;      Temps:          0       0       0       0       0
  3139 ;;      Totals:         8       0       0       0       0
  3140 ;;Total ram usage:        8 bytes
  3141 ;; Hardware stack levels used: 1
  3142 ;; Hardware stack levels required when called: 1
  3143 ;; This function calls:
  3144 ;;		Nothing
  3145 ;; This function is called by:
  3146 ;;		_time_display_screen
  3147 ;;		_set_temp
  3148 ;;		_set_time
  3149 ;; This function uses a non-reentrant model
  3150 ;;
  3151                           
  3152     043D                     ___awdiv:	
  3153                           ;psect for function ___awdiv
  3154                           
  3155     043D                     l1786:	
  3156                           ;incstack = 0
  3157                           ; Regs used in ___awdiv: [wreg+status,2+status,0+btemp+1]
  3158                           
  3159     043D  01F7               	clrf	___awdiv@sign
  3160     043E                     l1788:
  3161     043E  1FF3               	btfss	___awdiv@divisor+1,7
  3162     043F  2C41               	goto	u1201
  3163     0440  2C42               	goto	u1200
  3164     0441                     u1201:
  3165     0441  2C49               	goto	l1794
  3166     0442                     u1200:
  3167     0442                     l1790:
  3168     0442  09F2               	comf	___awdiv@divisor,f
  3169     0443  09F3               	comf	___awdiv@divisor+1,f
  3170     0444  0AF2               	incf	___awdiv@divisor,f
  3171     0445  1903               	skipnz
  3172     0446  0AF3               	incf	___awdiv@divisor+1,f
  3173     0447                     l1792:
  3174     0447  01F7               	clrf	___awdiv@sign
  3175     0448  0AF7               	incf	___awdiv@sign,f
  3176     0449                     l1794:
  3177     0449  1FF5               	btfss	___awdiv@dividend+1,7
  3178     044A  2C4C               	goto	u1211
  3179     044B  2C4D               	goto	u1210
  3180     044C                     u1211:
  3181     044C  2C56               	goto	l1800
  3182     044D                     u1210:
  3183     044D                     l1796:
  3184     044D  09F4               	comf	___awdiv@dividend,f
  3185     044E  09F5               	comf	___awdiv@dividend+1,f
  3186     044F  0AF4               	incf	___awdiv@dividend,f
  3187     0450  1903               	skipnz
  3188     0451  0AF5               	incf	___awdiv@dividend+1,f
  3189     0452                     l1798:
  3190     0452  3001               	movlw	1
  3191     0453  00FF               	movwf	btemp+1
  3192     0454  087F               	movf	btemp+1,w
  3193     0455  06F7               	xorwf	___awdiv@sign,f
  3194     0456                     l1800:
  3195     0456  01F8               	clrf	___awdiv@quotient
  3196     0457  01F9               	clrf	___awdiv@quotient+1
  3197     0458                     l1802:
  3198     0458  0872               	movf	___awdiv@divisor,w
  3199     0459  0473               	iorwf	___awdiv@divisor+1,w
  3200     045A  1903               	btfsc	3,2
  3201     045B  2C5D               	goto	u1221
  3202     045C  2C5E               	goto	u1220
  3203     045D                     u1221:
  3204     045D  2C95               	goto	l1822
  3205     045E                     u1220:
  3206     045E                     l1804:
  3207     045E  01F6               	clrf	___awdiv@counter
  3208     045F  0AF6               	incf	___awdiv@counter,f
  3209     0460  2C6C               	goto	l1810
  3210     0461                     l1806:
  3211     0461  3001               	movlw	1
  3212     0462                     u1235:
  3213     0462  1003               	clrc
  3214     0463  0DF2               	rlf	___awdiv@divisor,f
  3215     0464  0DF3               	rlf	___awdiv@divisor+1,f
  3216     0465  3EFF               	addlw	-1
  3217     0466  1D03               	skipz
  3218     0467  2C62               	goto	u1235
  3219     0468                     l1808:
  3220     0468  3001               	movlw	1
  3221     0469  00FF               	movwf	btemp+1
  3222     046A  087F               	movf	btemp+1,w
  3223     046B  07F6               	addwf	___awdiv@counter,f
  3224     046C                     l1810:
  3225     046C  1FF3               	btfss	___awdiv@divisor+1,7
  3226     046D  2C6F               	goto	u1241
  3227     046E  2C70               	goto	u1240
  3228     046F                     u1241:
  3229     046F  2C61               	goto	l1806
  3230     0470                     u1240:
  3231     0470                     l1812:
  3232     0470  3001               	movlw	1
  3233     0471                     u1255:
  3234     0471  1003               	clrc
  3235     0472  0DF8               	rlf	___awdiv@quotient,f
  3236     0473  0DF9               	rlf	___awdiv@quotient+1,f
  3237     0474  3EFF               	addlw	-1
  3238     0475  1D03               	skipz
  3239     0476  2C71               	goto	u1255
  3240     0477  0873               	movf	___awdiv@divisor+1,w
  3241     0478  0275               	subwf	___awdiv@dividend+1,w
  3242     0479  1D03               	skipz
  3243     047A  2C7D               	goto	u1265
  3244     047B  0872               	movf	___awdiv@divisor,w
  3245     047C  0274               	subwf	___awdiv@dividend,w
  3246     047D                     u1265:
  3247     047D  1C03               	skipc
  3248     047E  2C80               	goto	u1261
  3249     047F  2C81               	goto	u1260
  3250     0480                     u1261:
  3251     0480  2C88               	goto	l1818
  3252     0481                     u1260:
  3253     0481                     l1814:
  3254     0481  0872               	movf	___awdiv@divisor,w
  3255     0482  02F4               	subwf	___awdiv@dividend,f
  3256     0483  0873               	movf	___awdiv@divisor+1,w
  3257     0484  1C03               	skipc
  3258     0485  03F5               	decf	___awdiv@dividend+1,f
  3259     0486  02F5               	subwf	___awdiv@dividend+1,f
  3260     0487                     l1816:
  3261     0487  1478               	bsf	___awdiv@quotient,0
  3262     0488                     l1818:
  3263     0488  3001               	movlw	1
  3264     0489                     u1275:
  3265     0489  1003               	clrc
  3266     048A  0CF3               	rrf	___awdiv@divisor+1,f
  3267     048B  0CF2               	rrf	___awdiv@divisor,f
  3268     048C  3EFF               	addlw	-1
  3269     048D  1D03               	skipz
  3270     048E  2C89               	goto	u1275
  3271     048F                     l1820:
  3272     048F  3001               	movlw	1
  3273     0490  02F6               	subwf	___awdiv@counter,f
  3274     0491  1D03               	btfss	3,2
  3275     0492  2C94               	goto	u1281
  3276     0493  2C95               	goto	u1280
  3277     0494                     u1281:
  3278     0494  2C70               	goto	l1812
  3279     0495                     u1280:
  3280     0495                     l1822:
  3281     0495  0877               	movf	___awdiv@sign,w
  3282     0496  1903               	btfsc	3,2
  3283     0497  2C99               	goto	u1291
  3284     0498  2C9A               	goto	u1290
  3285     0499                     u1291:
  3286     0499  2C9F               	goto	l1826
  3287     049A                     u1290:
  3288     049A                     l1824:
  3289     049A  09F8               	comf	___awdiv@quotient,f
  3290     049B  09F9               	comf	___awdiv@quotient+1,f
  3291     049C  0AF8               	incf	___awdiv@quotient,f
  3292     049D  1903               	skipnz
  3293     049E  0AF9               	incf	___awdiv@quotient+1,f
  3294     049F                     l1826:
  3295     049F  0879               	movf	___awdiv@quotient+1,w
  3296     04A0  00F3               	movwf	?___awdiv+1
  3297     04A1  0878               	movf	___awdiv@quotient,w
  3298     04A2  00F2               	movwf	?___awdiv
  3299     04A3                     l531:
  3300     04A3  0008               	return
  3301     04A4                     __end_of___awdiv:
  3302                           
  3303                           	psect	text8
  3304     0EE7                     __ptext8:	
  3305 ;; *************** function _read_matrix_keypad *****************
  3306 ;; Defined at:
  3307 ;;		line 123 in file "matrix_keypad.c"
  3308 ;; Parameters:    Size  Location     Type
  3309 ;;  mode            1    wreg     unsigned char 
  3310 ;; Auto vars:     Size  Location     Type
  3311 ;;  mode            1    4[COMMON] unsigned char 
  3312 ;;  key             1    5[COMMON] unsigned char 
  3313 ;; Return value:  Size  Location     Type
  3314 ;;                  1    wreg      unsigned char 
  3315 ;; Registers used:
  3316 ;;		wreg, status,2, status,0, btemp+1, pclath, cstack
  3317 ;; Tracked objects:
  3318 ;;		On entry : 0/0
  3319 ;;		On exit  : 0/0
  3320 ;;		Unchanged: 0/0
  3321 ;; Data sizes:     COMMON   BANK0   BANK1   BANK3   BANK2
  3322 ;;      Params:         0       0       0       0       0
  3323 ;;      Locals:         2       0       0       0       0
  3324 ;;      Temps:          0       0       0       0       0
  3325 ;;      Totals:         2       0       0       0       0
  3326 ;;Total ram usage:        2 bytes
  3327 ;; Hardware stack levels used: 1
  3328 ;; Hardware stack levels required when called: 2
  3329 ;; This function calls:
  3330 ;;		_scan_keypad
  3331 ;; This function is called by:
  3332 ;;		_main
  3333 ;; This function uses a non-reentrant model
  3334 ;;
  3335                           
  3336     0EE7                     _read_matrix_keypad:	
  3337                           ;psect for function _read_matrix_keypad
  3338                           
  3339                           
  3340                           ;incstack = 0
  3341                           ; Regs used in _read_matrix_keypad: [wreg+status,2+status,0+btemp+1+pclath+cstack]
  3342                           ;read_matrix_keypad@mode stored from wreg
  3343     0EE7  00F4               	movwf	read_matrix_keypad@mode
  3344     0EE8                     l1882:
  3345                           
  3346                           ;matrix_keypad.c: 123: unsigned char read_matrix_keypad(unsigned char mode);matrix_keypa
      +                          d.c: 124: {;matrix_keypad.c: 125:     static unsigned char once = 1;;matrix_keypad.c: 12
      +                          6:     unsigned char key;;matrix_keypad.c: 128:     key = scan_keypad();
  3347     0EE8  120A  118A  26C1  120A  158A  	fcall	_scan_keypad
  3348     0EED  00F5               	movwf	read_matrix_keypad@key
  3349     0EEE                     l1884:
  3350                           
  3351                           ;matrix_keypad.c: 130:     if (mode == 0)
  3352     0EEE  0874               	movf	read_matrix_keypad@mode,w
  3353     0EEF  1D03               	btfss	3,2
  3354     0EF0  2EF2               	goto	u1391
  3355     0EF1  2EF3               	goto	u1390
  3356     0EF2                     u1391:
  3357     0EF2  2EF5               	goto	l1892
  3358     0EF3                     u1390:
  3359     0EF3                     l1886:
  3360                           
  3361                           ;matrix_keypad.c: 131:     {;matrix_keypad.c: 132:         return key;
  3362     0EF3  0875               	movf	read_matrix_keypad@key,w
  3363     0EF4  2F09               	goto	l257
  3364     0EF5                     l1892:
  3365                           
  3366                           ;matrix_keypad.c: 135:     {;matrix_keypad.c: 136:         if ((key != 0xFF) && once)
  3367     0EF5  0A75               	incf	read_matrix_keypad@key,w
  3368     0EF6  1903               	btfsc	3,2
  3369     0EF7  2EF9               	goto	u1401
  3370     0EF8  2EFA               	goto	u1400
  3371     0EF9                     u1401:
  3372     0EF9  2F01               	goto	l1904
  3373     0EFA                     u1400:
  3374     0EFA                     l1894:
  3375     0EFA  087B               	movf	read_matrix_keypad@once,w
  3376     0EFB  1903               	btfsc	3,2
  3377     0EFC  2EFE               	goto	u1411
  3378     0EFD  2EFF               	goto	u1410
  3379     0EFE                     u1411:
  3380     0EFE  2F01               	goto	l1904
  3381     0EFF                     u1410:
  3382     0EFF                     l1896:
  3383                           
  3384                           ;matrix_keypad.c: 137:         {;matrix_keypad.c: 138:             once = 0;
  3385     0EFF  01FB               	clrf	read_matrix_keypad@once
  3386     0F00  2EF3               	goto	l1886
  3387     0F01                     l1904:
  3388     0F01  0A75               	incf	read_matrix_keypad@key,w
  3389     0F02  1D03               	btfss	3,2
  3390     0F03  2F05               	goto	u1421
  3391     0F04  2F06               	goto	u1420
  3392     0F05                     u1421:
  3393     0F05  2F08               	goto	l1908
  3394     0F06                     u1420:
  3395     0F06                     l1906:
  3396                           
  3397                           ;matrix_keypad.c: 143:         {;matrix_keypad.c: 144:             once = 1;
  3398     0F06  01FB               	clrf	read_matrix_keypad@once
  3399     0F07  0AFB               	incf	read_matrix_keypad@once,f
  3400     0F08                     l1908:
  3401                           
  3402                           ;matrix_keypad.c: 148:     return 0xFF;
  3403     0F08  30FF               	movlw	255
  3404     0F09                     l257:
  3405     0F09  0008               	return
  3406     0F0A                     __end_of_read_matrix_keypad:
  3407                           
  3408                           	psect	text9
  3409     06C1                     __ptext9:	
  3410 ;; *************** function _scan_keypad *****************
  3411 ;; Defined at:
  3412 ;;		line 33 in file "matrix_keypad.c"
  3413 ;; Parameters:    Size  Location     Type
  3414 ;;		None
  3415 ;; Auto vars:     Size  Location     Type
  3416 ;;  i               2    2[COMMON] int 
  3417 ;; Return value:  Size  Location     Type
  3418 ;;                  1    wreg      unsigned char 
  3419 ;; Registers used:
  3420 ;;		wreg, status,2, status,0, btemp+1
  3421 ;; Tracked objects:
  3422 ;;		On entry : 0/0
  3423 ;;		On exit  : 0/0
  3424 ;;		Unchanged: 0/0
  3425 ;; Data sizes:     COMMON   BANK0   BANK1   BANK3   BANK2
  3426 ;;      Params:         0       0       0       0       0
  3427 ;;      Locals:         2       0       0       0       0
  3428 ;;      Temps:          0       0       0       0       0
  3429 ;;      Totals:         2       0       0       0       0
  3430 ;;Total ram usage:        2 bytes
  3431 ;; Hardware stack levels used: 1
  3432 ;; Hardware stack levels required when called: 1
  3433 ;; This function calls:
  3434 ;;		Nothing
  3435 ;; This function is called by:
  3436 ;;		_read_matrix_keypad
  3437 ;; This function uses a non-reentrant model
  3438 ;;
  3439                           
  3440     06C1                     _scan_keypad:	
  3441                           ;psect for function _scan_keypad
  3442                           
  3443     06C1                     l1666:	
  3444                           ;incstack = 0
  3445                           ; Regs used in _scan_keypad: [wreg+status,2+status,0+btemp+1]
  3446                           
  3447                           
  3448                           ;matrix_keypad.c: 35:     int i;;matrix_keypad.c: 37:     RD3 = 0;
  3449     06C1  1283               	bcf	3,5	;RP0=0, select bank0
  3450     06C2  1303               	bcf	3,6	;RP1=0, select bank0
  3451     06C3  1188               	bcf	8,3	;volatile
  3452                           
  3453                           ;matrix_keypad.c: 38:     RD2 = 1;
  3454     06C4  1508               	bsf	8,2	;volatile
  3455                           
  3456                           ;matrix_keypad.c: 39:     RD1 = 1;
  3457     06C5  1488               	bsf	8,1	;volatile
  3458                           
  3459                           ;matrix_keypad.c: 40:     RD0 = 1;
  3460     06C6  1408               	bsf	8,0	;volatile
  3461     06C7                     l1668:
  3462                           
  3463                           ;matrix_keypad.c: 42:     for (i = 100; i--; );
  3464     06C7  3064               	movlw	100
  3465     06C8  00F2               	movwf	scan_keypad@i
  3466     06C9  3000               	movlw	0
  3467     06CA  00F3               	movwf	scan_keypad@i+1
  3468     06CB                     l1670:
  3469     06CB  30FF               	movlw	255
  3470     06CC  07F2               	addwf	scan_keypad@i,f
  3471     06CD  1803               	skipnc
  3472     06CE  0AF3               	incf	scan_keypad@i+1,f
  3473     06CF  30FF               	movlw	255
  3474     06D0  07F3               	addwf	scan_keypad@i+1,f
  3475     06D1  0A72               	incf	scan_keypad@i,w
  3476     06D2  1D03               	skipz
  3477     06D3  2ED8               	goto	u1021
  3478     06D4  0A73               	incf	scan_keypad@i+1,w
  3479     06D5  1D03               	btfss	3,2
  3480     06D6  2ED8               	goto	u1021
  3481     06D7  2ED9               	goto	u1020
  3482     06D8                     u1021:
  3483     06D8  2ECB               	goto	l1670
  3484     06D9                     u1020:
  3485     06D9                     l224:
  3486                           
  3487                           ;matrix_keypad.c: 44:     if (RB0 == 0)
  3488     06D9  1283               	bcf	3,5	;RP0=0, select bank0
  3489     06DA  1303               	bcf	3,6	;RP1=0, select bank0
  3490     06DB  1806               	btfsc	6,0	;volatile
  3491     06DC  2EDE               	goto	u1031
  3492     06DD  2EDF               	goto	u1030
  3493     06DE                     u1031:
  3494     06DE  2EE1               	goto	l225
  3495     06DF                     u1030:
  3496     06DF                     l1672:
  3497                           
  3498                           ;matrix_keypad.c: 45:     {;matrix_keypad.c: 46:         return 1;
  3499     06DF  3001               	movlw	1
  3500     06E0  2F7B               	goto	l226
  3501     06E1                     l225:	
  3502                           ;matrix_keypad.c: 48:     else if (RB1 == 0)
  3503                           
  3504     06E1  1886               	btfsc	6,1	;volatile
  3505     06E2  2EE4               	goto	u1041
  3506     06E3  2EE5               	goto	u1040
  3507     06E4                     u1041:
  3508     06E4  2EE7               	goto	l228
  3509     06E5                     u1040:
  3510     06E5                     l1678:
  3511                           
  3512                           ;matrix_keypad.c: 49:     {;matrix_keypad.c: 50:         return 2;
  3513     06E5  3002               	movlw	2
  3514     06E6  2F7B               	goto	l226
  3515     06E7                     l228:	
  3516                           ;matrix_keypad.c: 52:     else if (RB2 == 0)
  3517                           
  3518     06E7  1906               	btfsc	6,2	;volatile
  3519     06E8  2EEA               	goto	u1051
  3520     06E9  2EEB               	goto	u1050
  3521     06EA                     u1051:
  3522     06EA  2EED               	goto	l227
  3523     06EB                     u1050:
  3524     06EB                     l1684:
  3525                           
  3526                           ;matrix_keypad.c: 53:     {;matrix_keypad.c: 54:         return 3;
  3527     06EB  3003               	movlw	3
  3528     06EC  2F7B               	goto	l226
  3529     06ED                     l227:
  3530                           
  3531                           ;matrix_keypad.c: 57:     RD3 = 1;
  3532     06ED  1588               	bsf	8,3	;volatile
  3533                           
  3534                           ;matrix_keypad.c: 58:     RD2 = 0;
  3535     06EE  1108               	bcf	8,2	;volatile
  3536                           
  3537                           ;matrix_keypad.c: 59:     RD1 = 1;
  3538     06EF  1488               	bsf	8,1	;volatile
  3539                           
  3540                           ;matrix_keypad.c: 60:     RD0 = 1;
  3541     06F0  1408               	bsf	8,0	;volatile
  3542     06F1                     l1688:
  3543                           
  3544                           ;matrix_keypad.c: 62:    for (i = 100; i > 0; i--)
  3545     06F1  3064               	movlw	100
  3546     06F2  00F2               	movwf	scan_keypad@i
  3547     06F3  3000               	movlw	0
  3548     06F4  00F3               	movwf	scan_keypad@i+1
  3549     06F5                     l1694:
  3550                           
  3551                           ;matrix_keypad.c: 63:    {;matrix_keypad.c: 65:    }
  3552     06F5  30FF               	movlw	255
  3553     06F6  07F2               	addwf	scan_keypad@i,f
  3554     06F7  1803               	skipnc
  3555     06F8  0AF3               	incf	scan_keypad@i+1,f
  3556     06F9  30FF               	movlw	255
  3557     06FA  07F3               	addwf	scan_keypad@i+1,f
  3558     06FB                     l1696:
  3559     06FB  0873               	movf	scan_keypad@i+1,w
  3560     06FC  3A80               	xorlw	128
  3561     06FD  00FF               	movwf	btemp+1
  3562     06FE  3080               	movlw	128
  3563     06FF  027F               	subwf	btemp+1,w
  3564     0700  1D03               	skipz
  3565     0701  2F04               	goto	u1065
  3566     0702  3001               	movlw	1
  3567     0703  0272               	subwf	scan_keypad@i,w
  3568     0704                     u1065:
  3569     0704  1803               	skipnc
  3570     0705  2F07               	goto	u1061
  3571     0706  2F08               	goto	u1060
  3572     0707                     u1061:
  3573     0707  2EF5               	goto	l1694
  3574     0708                     u1060:
  3575     0708                     l232:
  3576                           
  3577                           ;matrix_keypad.c: 67:     if (RB0 == 0)
  3578     0708  1283               	bcf	3,5	;RP0=0, select bank0
  3579     0709  1303               	bcf	3,6	;RP1=0, select bank0
  3580     070A  1806               	btfsc	6,0	;volatile
  3581     070B  2F0D               	goto	u1071
  3582     070C  2F0E               	goto	u1070
  3583     070D                     u1071:
  3584     070D  2F10               	goto	l233
  3585     070E                     u1070:
  3586     070E                     l1698:
  3587                           
  3588                           ;matrix_keypad.c: 68:     {;matrix_keypad.c: 69:         return 4;
  3589     070E  3004               	movlw	4
  3590     070F  2F7B               	goto	l226
  3591     0710                     l233:	
  3592                           ;matrix_keypad.c: 71:     else if (RB1 == 0)
  3593                           
  3594     0710  1886               	btfsc	6,1	;volatile
  3595     0711  2F13               	goto	u1081
  3596     0712  2F14               	goto	u1080
  3597     0713                     u1081:
  3598     0713  2F16               	goto	l235
  3599     0714                     u1080:
  3600     0714                     l1704:
  3601                           
  3602                           ;matrix_keypad.c: 72:     {;matrix_keypad.c: 73:         return 5;
  3603     0714  3005               	movlw	5
  3604     0715  2F7B               	goto	l226
  3605     0716                     l235:	
  3606                           ;matrix_keypad.c: 75:     else if (RB2 == 0)
  3607                           
  3608     0716  1906               	btfsc	6,2	;volatile
  3609     0717  2F19               	goto	u1091
  3610     0718  2F1A               	goto	u1090
  3611     0719                     u1091:
  3612     0719  2F1C               	goto	l234
  3613     071A                     u1090:
  3614     071A                     l1710:
  3615                           
  3616                           ;matrix_keypad.c: 76:     {;matrix_keypad.c: 77:         return 6;
  3617     071A  3006               	movlw	6
  3618     071B  2F7B               	goto	l226
  3619     071C                     l234:
  3620                           
  3621                           ;matrix_keypad.c: 80:     RD3 = 1;
  3622     071C  1588               	bsf	8,3	;volatile
  3623                           
  3624                           ;matrix_keypad.c: 81:     RD2 = 1;
  3625     071D  1508               	bsf	8,2	;volatile
  3626                           
  3627                           ;matrix_keypad.c: 82:     RD1 = 0;
  3628     071E  1088               	bcf	8,1	;volatile
  3629                           
  3630                           ;matrix_keypad.c: 83:     RD0 = 1;
  3631     071F  1408               	bsf	8,0	;volatile
  3632     0720                     l1714:
  3633                           
  3634                           ;matrix_keypad.c: 85:     for (i = 100; i > 0; i--);
  3635     0720  3064               	movlw	100
  3636     0721  00F2               	movwf	scan_keypad@i
  3637     0722  3000               	movlw	0
  3638     0723  00F3               	movwf	scan_keypad@i+1
  3639     0724                     l1720:
  3640     0724  30FF               	movlw	255
  3641     0725  07F2               	addwf	scan_keypad@i,f
  3642     0726  1803               	skipnc
  3643     0727  0AF3               	incf	scan_keypad@i+1,f
  3644     0728  30FF               	movlw	255
  3645     0729  07F3               	addwf	scan_keypad@i+1,f
  3646     072A                     l1722:
  3647     072A  0873               	movf	scan_keypad@i+1,w
  3648     072B  3A80               	xorlw	128
  3649     072C  00FF               	movwf	btemp+1
  3650     072D  3080               	movlw	128
  3651     072E  027F               	subwf	btemp+1,w
  3652     072F  1D03               	skipz
  3653     0730  2F33               	goto	u1105
  3654     0731  3001               	movlw	1
  3655     0732  0272               	subwf	scan_keypad@i,w
  3656     0733                     u1105:
  3657     0733  1803               	skipnc
  3658     0734  2F36               	goto	u1101
  3659     0735  2F37               	goto	u1100
  3660     0736                     u1101:
  3661     0736  2F24               	goto	l1720
  3662     0737                     u1100:
  3663     0737                     l239:
  3664                           
  3665                           ;matrix_keypad.c: 87:     if (RB0 == 0)
  3666     0737  1283               	bcf	3,5	;RP0=0, select bank0
  3667     0738  1303               	bcf	3,6	;RP1=0, select bank0
  3668     0739  1806               	btfsc	6,0	;volatile
  3669     073A  2F3C               	goto	u1111
  3670     073B  2F3D               	goto	u1110
  3671     073C                     u1111:
  3672     073C  2F3F               	goto	l240
  3673     073D                     u1110:
  3674     073D                     l1724:
  3675                           
  3676                           ;matrix_keypad.c: 88:     {;matrix_keypad.c: 89:         return 7;
  3677     073D  3007               	movlw	7
  3678     073E  2F7B               	goto	l226
  3679     073F                     l240:	
  3680                           ;matrix_keypad.c: 91:     else if (RB1 == 0)
  3681                           
  3682     073F  1886               	btfsc	6,1	;volatile
  3683     0740  2F42               	goto	u1121
  3684     0741  2F43               	goto	u1120
  3685     0742                     u1121:
  3686     0742  2F45               	goto	l242
  3687     0743                     u1120:
  3688     0743                     l1730:
  3689                           
  3690                           ;matrix_keypad.c: 92:     {;matrix_keypad.c: 93:         return 8;
  3691     0743  3008               	movlw	8
  3692     0744  2F7B               	goto	l226
  3693     0745                     l242:	
  3694                           ;matrix_keypad.c: 95:     else if (RB2 == 0)
  3695                           
  3696     0745  1906               	btfsc	6,2	;volatile
  3697     0746  2F48               	goto	u1131
  3698     0747  2F49               	goto	u1130
  3699     0748                     u1131:
  3700     0748  2F4B               	goto	l241
  3701     0749                     u1130:
  3702     0749                     l1736:
  3703                           
  3704                           ;matrix_keypad.c: 96:     {;matrix_keypad.c: 97:         return 9;
  3705     0749  3009               	movlw	9
  3706     074A  2F7B               	goto	l226
  3707     074B                     l241:
  3708                           
  3709                           ;matrix_keypad.c: 100:     RD3 = 1;
  3710     074B  1588               	bsf	8,3	;volatile
  3711                           
  3712                           ;matrix_keypad.c: 101:     RD2 = 1;
  3713     074C  1508               	bsf	8,2	;volatile
  3714                           
  3715                           ;matrix_keypad.c: 102:     RD1 = 1;
  3716     074D  1488               	bsf	8,1	;volatile
  3717                           
  3718                           ;matrix_keypad.c: 103:     RD0 = 0;
  3719     074E  1008               	bcf	8,0	;volatile
  3720     074F                     l1740:
  3721                           
  3722                           ;matrix_keypad.c: 105:     for (i = 100; i > 0; i--);
  3723     074F  3064               	movlw	100
  3724     0750  00F2               	movwf	scan_keypad@i
  3725     0751  3000               	movlw	0
  3726     0752  00F3               	movwf	scan_keypad@i+1
  3727     0753                     l1746:
  3728     0753  30FF               	movlw	255
  3729     0754  07F2               	addwf	scan_keypad@i,f
  3730     0755  1803               	skipnc
  3731     0756  0AF3               	incf	scan_keypad@i+1,f
  3732     0757  30FF               	movlw	255
  3733     0758  07F3               	addwf	scan_keypad@i+1,f
  3734     0759                     l1748:
  3735     0759  0873               	movf	scan_keypad@i+1,w
  3736     075A  3A80               	xorlw	128
  3737     075B  00FF               	movwf	btemp+1
  3738     075C  3080               	movlw	128
  3739     075D  027F               	subwf	btemp+1,w
  3740     075E  1D03               	skipz
  3741     075F  2F62               	goto	u1145
  3742     0760  3001               	movlw	1
  3743     0761  0272               	subwf	scan_keypad@i,w
  3744     0762                     u1145:
  3745     0762  1803               	skipnc
  3746     0763  2F65               	goto	u1141
  3747     0764  2F66               	goto	u1140
  3748     0765                     u1141:
  3749     0765  2F53               	goto	l1746
  3750     0766                     u1140:
  3751     0766                     l246:
  3752                           
  3753                           ;matrix_keypad.c: 107:     if (RB0 == 0)
  3754     0766  1283               	bcf	3,5	;RP0=0, select bank0
  3755     0767  1303               	bcf	3,6	;RP1=0, select bank0
  3756     0768  1806               	btfsc	6,0	;volatile
  3757     0769  2F6B               	goto	u1151
  3758     076A  2F6C               	goto	u1150
  3759     076B                     u1151:
  3760     076B  2F6E               	goto	l247
  3761     076C                     u1150:
  3762     076C                     l1750:
  3763                           
  3764                           ;matrix_keypad.c: 108:     {;matrix_keypad.c: 109:         return '*';
  3765     076C  302A               	movlw	42
  3766     076D  2F7B               	goto	l226
  3767     076E                     l247:	
  3768                           ;matrix_keypad.c: 111:     else if (RB1 == 0)
  3769                           
  3770     076E  1886               	btfsc	6,1	;volatile
  3771     076F  2F71               	goto	u1161
  3772     0770  2F72               	goto	u1160
  3773     0771                     u1161:
  3774     0771  2F74               	goto	l249
  3775     0772                     u1160:
  3776     0772                     l1756:
  3777                           
  3778                           ;matrix_keypad.c: 112:     {;matrix_keypad.c: 113:         return 0;
  3779     0772  3000               	movlw	0
  3780     0773  2F7B               	goto	l226
  3781     0774                     l249:	
  3782                           ;matrix_keypad.c: 115:     else if (RB2 == 0)
  3783                           
  3784     0774  1906               	btfsc	6,2	;volatile
  3785     0775  2F77               	goto	u1171
  3786     0776  2F78               	goto	u1170
  3787     0777                     u1171:
  3788     0777  2F7A               	goto	l1766
  3789     0778                     u1170:
  3790     0778                     l1762:
  3791                           
  3792                           ;matrix_keypad.c: 116:     {;matrix_keypad.c: 117:         return '#';
  3793     0778  3023               	movlw	35
  3794     0779  2F7B               	goto	l226
  3795     077A                     l1766:
  3796                           
  3797                           ;matrix_keypad.c: 120:     return 0xFF;
  3798     077A  30FF               	movlw	255
  3799     077B                     l226:
  3800     077B  0008               	return
  3801     077C                     __end_of_scan_keypad:
  3802                           
  3803                           	psect	text10
  3804     077C                     __ptext10:	
  3805 ;; *************** function _power_on_screen *****************
  3806 ;; Defined at:
  3807 ;;		line 204 in file "main.c"
  3808 ;; Parameters:    Size  Location     Type
  3809 ;;		None
  3810 ;; Auto vars:     Size  Location     Type
  3811 ;;  i               1   10[BANK0 ] unsigned char 
  3812 ;; Return value:  Size  Location     Type
  3813 ;;                  1    wreg      void 
  3814 ;; Registers used:
  3815 ;;		wreg, fsr0l, fsr0h, status,2, status,0, btemp+1, pclath, cstack
  3816 ;; Tracked objects:
  3817 ;;		On entry : 0/0
  3818 ;;		On exit  : 0/0
  3819 ;;		Unchanged: 0/0
  3820 ;; Data sizes:     COMMON   BANK0   BANK1   BANK3   BANK2
  3821 ;;      Params:         0       0       0       0       0
  3822 ;;      Locals:         0       1       0       0       0
  3823 ;;      Temps:          0       3       0       0       0
  3824 ;;      Totals:         0       4       0       0       0
  3825 ;;Total ram usage:        4 bytes
  3826 ;; Hardware stack levels used: 1
  3827 ;; Hardware stack levels required when called: 3
  3828 ;; This function calls:
  3829 ;;		_clcd_print
  3830 ;;		_clcd_putch
  3831 ;; This function is called by:
  3832 ;;		_main
  3833 ;; This function uses a non-reentrant model
  3834 ;;
  3835                           
  3836     077C                     _power_on_screen:	
  3837                           ;psect for function _power_on_screen
  3838                           
  3839     077C                     l2442:	
  3840                           ;incstack = 0
  3841                           ; Regs used in _power_on_screen: [wreg-fsr0h+status,2+status,0+btemp+1+pclath+cstack]
  3842                           
  3843                           
  3844                           ;main.c: 206: ;main.c: 208:    {
  3845     077C  1283               	bcf	3,5	;RP0=0, select bank0
  3846     077D  1303               	bcf	3,6	;RP1=0, select bank0
  3847     077E  01AA               	clrf	power_on_screen@i
  3848     077F                     l2448:
  3849                           
  3850                           ;main.c: 209:       clcd_putch(0xFF, (0xD0 + i));;main.c: 211:   }
  3851     077F  082A               	movf	power_on_screen@i,w
  3852     0780  3E80               	addlw	128
  3853     0781  00A6               	movwf	clcd_putch@addr
  3854     0782  30FF               	movlw	255
  3855     0783  120A  158A  2695  120A  118A  	fcall	_clcd_putch
  3856     0788                     l2450:
  3857                           
  3858                           ;main.c: 212: 
  3859     0788  3003               	movlw	3
  3860     0789  1283               	bcf	3,5	;RP0=0, select bank0
  3861     078A  1303               	bcf	3,6	;RP1=0, select bank0
  3862     078B  00A9               	movwf	??_power_on_screen+2
  3863     078C  308A               	movlw	138
  3864     078D  00A8               	movwf	??_power_on_screen+1
  3865     078E  3055               	movlw	85
  3866     078F  00A7               	movwf	??_power_on_screen
  3867     0790                     u2587:
  3868     0790  0BA7               	decfsz	??_power_on_screen,f
  3869     0791  2F90               	goto	u2587
  3870     0792  0BA8               	decfsz	??_power_on_screen+1,f
  3871     0793  2F90               	goto	u2587
  3872     0794  0BA9               	decfsz	??_power_on_screen+2,f
  3873     0795  2F90               	goto	u2587
  3874     0796                     l2452:
  3875                           
  3876                           ;main.c: 214:   _delay((unsigned long)((3000)*(20000000/4000.0)));
  3877     0796  3001               	movlw	1
  3878     0797  00FF               	movwf	btemp+1
  3879     0798  087F               	movf	btemp+1,w
  3880     0799  1283               	bcf	3,5	;RP0=0, select bank0
  3881     079A  1303               	bcf	3,6	;RP1=0, select bank0
  3882     079B  07AA               	addwf	power_on_screen@i,f
  3883     079C                     l2454:
  3884     079C  3010               	movlw	16
  3885     079D  022A               	subwf	power_on_screen@i,w
  3886     079E  1C03               	skipc
  3887     079F  2FA1               	goto	u2081
  3888     07A0  2FA2               	goto	u2080
  3889     07A1                     u2081:
  3890     07A1  2F7F               	goto	l2448
  3891     07A2                     u2080:
  3892     07A2                     l2456:
  3893                           
  3894                           ;main.c: 217: 
  3895     07A2  30C0               	movlw	192
  3896     07A3  00F6               	movwf	clcd_print@addr
  3897     07A4  3001               	movlw	(low ((STR_7-__stringbase)| (0+32768)))& (0+255)
  3898     07A5  120A  158A  270A  120A  118A  	fcall	_clcd_print
  3899                           
  3900                           ;main.c: 218: 
  3901     07AA  3090               	movlw	144
  3902     07AB  00F6               	movwf	clcd_print@addr
  3903     07AC  3012               	movlw	(low ((STR_8-__stringbase)| (0+32768)))& (0+255)
  3904     07AD  120A  158A  270A  120A  118A  	fcall	_clcd_print
  3905     07B2                     l2458:
  3906                           
  3907                           ;main.c: 221: {
  3908     07B2  1283               	bcf	3,5	;RP0=0, select bank0
  3909     07B3  1303               	bcf	3,6	;RP1=0, select bank0
  3910     07B4  01AA               	clrf	power_on_screen@i
  3911     07B5                     l2464:
  3912                           
  3913                           ;main.c: 222:  clcd_print ("1.Micro", (0x80 + 0));;main.c: 223:  clcd_print ("2.Grill", 
      +                          (0xC0 + 0));
  3914     07B5  082A               	movf	power_on_screen@i,w
  3915     07B6  3ED0               	addlw	208
  3916     07B7  00A6               	movwf	clcd_putch@addr
  3917     07B8  30FF               	movlw	255
  3918     07B9  120A  158A  2695  120A  118A  	fcall	_clcd_putch
  3919     07BE                     l2466:
  3920                           
  3921                           ;main.c: 224:  clcd_print("3.Convection", (0x90 + 0));
  3922     07BE  3003               	movlw	3
  3923     07BF  1283               	bcf	3,5	;RP0=0, select bank0
  3924     07C0  1303               	bcf	3,6	;RP1=0, select bank0
  3925     07C1  00A9               	movwf	??_power_on_screen+2
  3926     07C2  308A               	movlw	138
  3927     07C3  00A8               	movwf	??_power_on_screen+1
  3928     07C4  3055               	movlw	85
  3929     07C5  00A7               	movwf	??_power_on_screen
  3930     07C6                     u2597:
  3931     07C6  0BA7               	decfsz	??_power_on_screen,f
  3932     07C7  2FC6               	goto	u2597
  3933     07C8  0BA8               	decfsz	??_power_on_screen+1,f
  3934     07C9  2FC6               	goto	u2597
  3935     07CA  0BA9               	decfsz	??_power_on_screen+2,f
  3936     07CB  2FC6               	goto	u2597
  3937     07CC                     l2468:
  3938                           
  3939                           ;main.c: 225:  clcd_print ("4.Start", (0xD0 + 0));
  3940     07CC  3001               	movlw	1
  3941     07CD  00FF               	movwf	btemp+1
  3942     07CE  087F               	movf	btemp+1,w
  3943     07CF  1283               	bcf	3,5	;RP0=0, select bank0
  3944     07D0  1303               	bcf	3,6	;RP1=0, select bank0
  3945     07D1  07AA               	addwf	power_on_screen@i,f
  3946     07D2                     l2470:
  3947     07D2  3010               	movlw	16
  3948     07D3  022A               	subwf	power_on_screen@i,w
  3949     07D4  1C03               	skipc
  3950     07D5  2FD7               	goto	u2091
  3951     07D6  2FD8               	goto	u2090
  3952     07D7                     u2091:
  3953     07D7  2FB5               	goto	l2464
  3954     07D8                     u2090:
  3955     07D8                     l2472:
  3956                           
  3957                           ;main.c: 228: void set_temp(unsigned char key,int reset_flag)
  3958     07D8  304D               	movlw	77
  3959     07D9  1283               	bcf	3,5	;RP0=0, select bank0
  3960     07DA  1303               	bcf	3,6	;RP1=0, select bank0
  3961     07DB  00A9               	movwf	??_power_on_screen+2
  3962     07DC  3019               	movlw	25
  3963     07DD  00A8               	movwf	??_power_on_screen+1
  3964     07DE  304F               	movlw	79
  3965     07DF  00A7               	movwf	??_power_on_screen
  3966     07E0                     u2607:
  3967     07E0  0BA7               	decfsz	??_power_on_screen,f
  3968     07E1  2FE0               	goto	u2607
  3969     07E2  0BA8               	decfsz	??_power_on_screen+1,f
  3970     07E3  2FE0               	goto	u2607
  3971     07E4  0BA9               	decfsz	??_power_on_screen+2,f
  3972     07E5  2FE0               	goto	u2607
  3973     07E6                     l108:
  3974     07E6  0008               	return
  3975     07E7                     __end_of_power_on_screen:
  3976                           
  3977                           	psect	text11
  3978     0E95                     __ptext11:	
  3979 ;; *************** function _clcd_putch *****************
  3980 ;; Defined at:
  3981 ;;		line 56 in file "clcd.c"
  3982 ;; Parameters:    Size  Location     Type
  3983 ;;  data            1    wreg     const unsigned char 
  3984 ;;  addr            1    6[BANK0 ] unsigned char 
  3985 ;; Auto vars:     Size  Location     Type
  3986 ;;  data            1   10[COMMON] const unsigned char 
  3987 ;; Return value:  Size  Location     Type
  3988 ;;                  1    wreg      void 
  3989 ;; Registers used:
  3990 ;;		wreg, status,2, status,0, pclath, cstack
  3991 ;; Tracked objects:
  3992 ;;		On entry : 0/0
  3993 ;;		On exit  : 0/0
  3994 ;;		Unchanged: 0/0
  3995 ;; Data sizes:     COMMON   BANK0   BANK1   BANK3   BANK2
  3996 ;;      Params:         0       1       0       0       0
  3997 ;;      Locals:         1       0       0       0       0
  3998 ;;      Temps:          0       0       0       0       0
  3999 ;;      Totals:         1       1       0       0       0
  4000 ;;Total ram usage:        2 bytes
  4001 ;; Hardware stack levels used: 1
  4002 ;; Hardware stack levels required when called: 2
  4003 ;; This function calls:
  4004 ;;		_clcd_write
  4005 ;; This function is called by:
  4006 ;;		_time_display_screen
  4007 ;;		_power_on_screen
  4008 ;;		_set_temp
  4009 ;;		_set_time
  4010 ;; This function uses a non-reentrant model
  4011 ;;
  4012                           
  4013     0E95                     _clcd_putch:	
  4014                           ;psect for function _clcd_putch
  4015                           
  4016                           
  4017                           ;incstack = 0
  4018                           ; Regs used in _clcd_putch: [wreg+status,2+status,0+pclath+cstack]
  4019                           ;clcd_putch@data stored from wreg
  4020     0E95  00FA               	movwf	clcd_putch@data
  4021     0E96                     l2388:
  4022                           
  4023                           ;clcd.c: 56: void clcd_putch(const char data, unsigned char addr);clcd.c: 57: {;clcd.c: 
      +                          58:     clcd_write(addr, 0);
  4024     0E96  01F2               	clrf	clcd_write@mode
  4025     0E97  1283               	bcf	3,5	;RP0=0, select bank0
  4026     0E98  1303               	bcf	3,6	;RP1=0, select bank0
  4027     0E99  0826               	movf	clcd_putch@addr,w
  4028     0E9A  120A  158A  2767  120A  158A  	fcall	_clcd_write
  4029                           
  4030                           ;clcd.c: 59:     clcd_write(data, 1);
  4031     0E9F  01F2               	clrf	clcd_write@mode
  4032     0EA0  0AF2               	incf	clcd_write@mode,f
  4033     0EA1  087A               	movf	clcd_putch@data,w
  4034     0EA2  120A  158A  2767  120A  158A  	fcall	_clcd_write
  4035     0EA7                     l190:
  4036     0EA7  0008               	return
  4037     0EA8                     __end_of_clcd_putch:
  4038                           
  4039                           	psect	text12
  4040     0EC6                     __ptext12:	
  4041 ;; *************** function _menu_display_screen *****************
  4042 ;; Defined at:
  4043 ;;		line 234 in file "main.c"
  4044 ;; Parameters:    Size  Location     Type
  4045 ;;		None
  4046 ;; Auto vars:     Size  Location     Type
  4047 ;;		None
  4048 ;; Return value:  Size  Location     Type
  4049 ;;                  1    wreg      void 
  4050 ;; Registers used:
  4051 ;;		wreg, fsr0l, fsr0h, status,2, status,0, btemp+1, pclath, cstack
  4052 ;; Tracked objects:
  4053 ;;		On entry : 0/0
  4054 ;;		On exit  : 0/0
  4055 ;;		Unchanged: 0/0
  4056 ;; Data sizes:     COMMON   BANK0   BANK1   BANK3   BANK2
  4057 ;;      Params:         0       0       0       0       0
  4058 ;;      Locals:         0       0       0       0       0
  4059 ;;      Temps:          0       0       0       0       0
  4060 ;;      Totals:         0       0       0       0       0
  4061 ;;Total ram usage:        0 bytes
  4062 ;; Hardware stack levels used: 1
  4063 ;; Hardware stack levels required when called: 3
  4064 ;; This function calls:
  4065 ;;		_clcd_print
  4066 ;; This function is called by:
  4067 ;;		_main
  4068 ;; This function uses a non-reentrant model
  4069 ;;
  4070                           
  4071     0EC6                     _menu_display_screen:	
  4072                           ;psect for function _menu_display_screen
  4073                           
  4074     0EC6                     l2474:	
  4075                           ;incstack = 0
  4076                           ; Regs used in _menu_display_screen: [wreg-fsr0h+status,2+status,0+btemp+1+pclath+cstack
      +                          ]
  4077                           
  4078                           
  4079                           ;main.c: 236:         blink = 0;
  4080     0EC6  3080               	movlw	128
  4081     0EC7  00F6               	movwf	clcd_print@addr
  4082     0EC8  30CA               	movlw	(low ((STR_9-__stringbase)| (0+32768)))& (0+255)
  4083     0EC9  120A  158A  270A  120A  158A  	fcall	_clcd_print
  4084                           
  4085                           ;main.c: 237:         flag = 0;
  4086     0ECE  30C0               	movlw	192
  4087     0ECF  00F6               	movwf	clcd_print@addr
  4088     0ED0  30C2               	movlw	(low ((STR_10-__stringbase)| (0+32768)))& (0+255)
  4089     0ED1  120A  158A  270A  120A  158A  	fcall	_clcd_print
  4090                           
  4091                           ;main.c: 238:         temp =0;
  4092     0ED6  3090               	movlw	144
  4093     0ED7  00F6               	movwf	clcd_print@addr
  4094     0ED8  3082               	movlw	(low ((STR_11-__stringbase)| (0+32768)))& (0+255)
  4095     0ED9  120A  158A  270A  120A  158A  	fcall	_clcd_print
  4096                           
  4097                           ;main.c: 239:         key = 0xFF;
  4098     0EDE  30D0               	movlw	208
  4099     0EDF  00F6               	movwf	clcd_print@addr
  4100     0EE0  30DA               	movlw	(low ((STR_12-__stringbase)| (0+32768)))& (0+255)
  4101     0EE1  120A  158A  270A  120A  158A  	fcall	_clcd_print
  4102     0EE6                     l111:
  4103     0EE6  0008               	return
  4104     0EE7                     __end_of_menu_display_screen:
  4105                           
  4106                           	psect	text13
  4107     0F0A                     __ptext13:	
  4108 ;; *************** function _clcd_print *****************
  4109 ;; Defined at:
  4110 ;;		line 62 in file "clcd.c"
  4111 ;; Parameters:    Size  Location     Type
  4112 ;;  str             1    wreg     PTR const unsigned char 
  4113 ;;		 -> STR_23(3), STR_22(3), STR_21(17), STR_20(7), 
  4114 ;;		 -> STR_19(17), STR_18(4), STR_17(12), STR_16(15), 
  4115 ;;		 -> STR_15(17), STR_14(8), STR_13(14), STR_12(8), 
  4116 ;;		 -> STR_11(13), STR_10(8), STR_9(8), STR_8(17), 
  4117 ;;		 -> STR_7(17), STR_6(12), STR_5(8), STR_4(9), 
  4118 ;;		 -> STR_3(16), STR_2(10), STR_1(16), 
  4119 ;;  addr            1    6[COMMON] unsigned char 
  4120 ;; Auto vars:     Size  Location     Type
  4121 ;;  str             1    7[COMMON] PTR const unsigned char 
  4122 ;;		 -> STR_23(3), STR_22(3), STR_21(17), STR_20(7), 
  4123 ;;		 -> STR_19(17), STR_18(4), STR_17(12), STR_16(15), 
  4124 ;;		 -> STR_15(17), STR_14(8), STR_13(14), STR_12(8), 
  4125 ;;		 -> STR_11(13), STR_10(8), STR_9(8), STR_8(17), 
  4126 ;;		 -> STR_7(17), STR_6(12), STR_5(8), STR_4(9), 
  4127 ;;		 -> STR_3(16), STR_2(10), STR_1(16), 
  4128 ;; Return value:  Size  Location     Type
  4129 ;;                  1    wreg      void 
  4130 ;; Registers used:
  4131 ;;		wreg, fsr0l, fsr0h, status,2, status,0, btemp+1, pclath, cstack
  4132 ;; Tracked objects:
  4133 ;;		On entry : 0/0
  4134 ;;		On exit  : 0/0
  4135 ;;		Unchanged: 0/0
  4136 ;; Data sizes:     COMMON   BANK0   BANK1   BANK3   BANK2
  4137 ;;      Params:         1       0       0       0       0
  4138 ;;      Locals:         1       0       0       0       0
  4139 ;;      Temps:          0       0       0       0       0
  4140 ;;      Totals:         2       0       0       0       0
  4141 ;;Total ram usage:        2 bytes
  4142 ;; Hardware stack levels used: 1
  4143 ;; Hardware stack levels required when called: 2
  4144 ;; This function calls:
  4145 ;;		_clcd_write
  4146 ;; This function is called by:
  4147 ;;		_main
  4148 ;;		_time_display_screen
  4149 ;;		_power_on_screen
  4150 ;;		_menu_display_screen
  4151 ;;		_set_temp
  4152 ;;		_set_time
  4153 ;; This function uses a non-reentrant model
  4154 ;;
  4155                           
  4156     0F0A                     _clcd_print:	
  4157                           ;psect for function _clcd_print
  4158                           
  4159                           
  4160                           ;incstack = 0
  4161                           ; Regs used in _clcd_print: [wreg-fsr0h+status,2+status,0+btemp+1+pclath+cstack]
  4162                           ;clcd_print@str stored from wreg
  4163     0F0A  00F7               	movwf	clcd_print@str
  4164     0F0B                     l2380:
  4165                           
  4166                           ;clcd.c: 62: void clcd_print(const char *str, unsigned char addr);clcd.c: 63: {;clcd.c: 
      +                          64:     clcd_write(addr, 0);
  4167     0F0B  01F2               	clrf	clcd_write@mode
  4168     0F0C  0876               	movf	clcd_print@addr,w
  4169     0F0D  120A  158A  2767  120A  158A  	fcall	_clcd_write
  4170                           
  4171                           ;clcd.c: 66:     while (*str != '\0')
  4172     0F12  2F25               	goto	l2386
  4173     0F13                     l2382:
  4174                           
  4175                           ;clcd.c: 67:     {;clcd.c: 68:         clcd_write(*str, 1);
  4176     0F13  01F2               	clrf	clcd_write@mode
  4177     0F14  0AF2               	incf	clcd_write@mode,f
  4178     0F15  0877               	movf	clcd_print@str,w
  4179     0F16  0084               	movwf	4
  4180     0F17  120A  118A  2500  120A  158A  	fcall	stringdir
  4181     0F1C  120A  158A  2767  120A  158A  	fcall	_clcd_write
  4182     0F21                     l2384:
  4183                           
  4184                           ;clcd.c: 69:         str++;
  4185     0F21  3001               	movlw	1
  4186     0F22  00FF               	movwf	btemp+1
  4187     0F23  087F               	movf	btemp+1,w
  4188     0F24  07F7               	addwf	clcd_print@str,f
  4189     0F25                     l2386:
  4190                           
  4191                           ;clcd.c: 66:     while (*str != '\0')
  4192     0F25  0877               	movf	clcd_print@str,w
  4193     0F26  0084               	movwf	4
  4194     0F27  120A  118A  2500  120A  158A  	fcall	stringdir
  4195     0F2C  3A00               	xorlw	0
  4196     0F2D  1D03               	skipz
  4197     0F2E  2F30               	goto	u1981
  4198     0F2F  2F31               	goto	u1980
  4199     0F30                     u1981:
  4200     0F30  2F13               	goto	l2382
  4201     0F31                     u1980:
  4202     0F31                     l196:
  4203     0F31  0008               	return
  4204     0F32                     __end_of_clcd_print:
  4205                           
  4206                           	psect	text14
  4207     0EA8                     __ptext14:	
  4208 ;; *************** function _init_config *****************
  4209 ;; Defined at:
  4210 ;;		line 16 in file "main.c"
  4211 ;; Parameters:    Size  Location     Type
  4212 ;;		None
  4213 ;; Auto vars:     Size  Location     Type
  4214 ;;		None
  4215 ;; Return value:  Size  Location     Type
  4216 ;;                  1    wreg      void 
  4217 ;; Registers used:
  4218 ;;		wreg, status,2, status,0, pclath, cstack
  4219 ;; Tracked objects:
  4220 ;;		On entry : 0/0
  4221 ;;		On exit  : 0/0
  4222 ;;		Unchanged: 0/0
  4223 ;; Data sizes:     COMMON   BANK0   BANK1   BANK3   BANK2
  4224 ;;      Params:         0       0       0       0       0
  4225 ;;      Locals:         0       0       0       0       0
  4226 ;;      Temps:          0       0       0       0       0
  4227 ;;      Totals:         0       0       0       0       0
  4228 ;;Total ram usage:        0 bytes
  4229 ;; Hardware stack levels used: 1
  4230 ;; Hardware stack levels required when called: 4
  4231 ;; This function calls:
  4232 ;;		_init_clcd
  4233 ;;		_init_matrix_keypad
  4234 ;;		_init_timer2
  4235 ;; This function is called by:
  4236 ;;		_main
  4237 ;; This function uses a non-reentrant model
  4238 ;;
  4239                           
  4240     0EA8                     _init_config:	
  4241                           ;psect for function _init_config
  4242                           
  4243     0EA8                     l2428:	
  4244                           ;incstack = 0
  4245                           ; Regs used in _init_config: [wreg+status,2+status,0+pclath+cstack]
  4246                           
  4247                           
  4248                           ;main.c: 18: 
  4249     0EA8  120A  158A  265C  120A  158A  	fcall	_init_clcd
  4250                           
  4251                           ;main.c: 21: }
  4252     0EAD  120A  158A  2674  120A  158A  	fcall	_init_matrix_keypad
  4253     0EB2                     l2430:
  4254                           
  4255                           ;main.c: 24:     init_config();
  4256     0EB2  1683               	bsf	3,5	;RP0=1, select bank1
  4257     0EB3  1303               	bcf	3,6	;RP1=0, select bank1
  4258     0EB4  1107               	bcf	7,2	;volatile
  4259     0EB5                     l2432:
  4260                           
  4261                           ;main.c: 25: 
  4262     0EB5  1283               	bcf	3,5	;RP0=0, select bank0
  4263     0EB6  1303               	bcf	3,6	;RP1=0, select bank0
  4264     0EB7  1107               	bcf	7,2	;volatile
  4265     0EB8                     l2434:
  4266                           
  4267                           ;main.c: 27: 
  4268     0EB8  1683               	bsf	3,5	;RP0=1, select bank1
  4269     0EB9  1303               	bcf	3,6	;RP1=0, select bank1
  4270     0EBA  1087               	bcf	7,1	;volatile
  4271     0EBB                     l2436:
  4272                           
  4273                           ;main.c: 28:     unsigned char key;
  4274     0EBB  1283               	bcf	3,5	;RP0=0, select bank0
  4275     0EBC  1303               	bcf	3,6	;RP1=0, select bank0
  4276     0EBD  1087               	bcf	7,1	;volatile
  4277                           
  4278                           ;main.c: 31:         key = read_matrix_keypad(1);
  4279     0EBE  120A  158A  2667  120A  158A  	fcall	_init_timer2
  4280     0EC3                     l2438:
  4281                           
  4282                           ;main.c: 33:         {
  4283     0EC3  170B               	bsf	11,6	;volatile
  4284     0EC4                     l2440:
  4285                           
  4286                           ;main.c: 34: 
  4287     0EC4  178B               	bsf	11,7	;volatile
  4288     0EC5                     l53:
  4289     0EC5  0008               	return
  4290     0EC6                     __end_of_init_config:
  4291                           
  4292                           	psect	text15
  4293     0E67                     __ptext15:	
  4294 ;; *************** function _init_timer2 *****************
  4295 ;; Defined at:
  4296 ;;		line 4 in file "timers.c"
  4297 ;; Parameters:    Size  Location     Type
  4298 ;;		None
  4299 ;; Auto vars:     Size  Location     Type
  4300 ;;		None
  4301 ;; Return value:  Size  Location     Type
  4302 ;;                  1    wreg      void 
  4303 ;; Registers used:
  4304 ;;		wreg
  4305 ;; Tracked objects:
  4306 ;;		On entry : 0/0
  4307 ;;		On exit  : 0/0
  4308 ;;		Unchanged: 0/0
  4309 ;; Data sizes:     COMMON   BANK0   BANK1   BANK3   BANK2
  4310 ;;      Params:         0       0       0       0       0
  4311 ;;      Locals:         0       0       0       0       0
  4312 ;;      Temps:          0       0       0       0       0
  4313 ;;      Totals:         0       0       0       0       0
  4314 ;;Total ram usage:        0 bytes
  4315 ;; Hardware stack levels used: 1
  4316 ;; Hardware stack levels required when called: 1
  4317 ;; This function calls:
  4318 ;;		Nothing
  4319 ;; This function is called by:
  4320 ;;		_init_config
  4321 ;; This function uses a non-reentrant model
  4322 ;;
  4323                           
  4324     0E67                     _init_timer2:	
  4325                           ;psect for function _init_timer2
  4326                           
  4327     0E67                     l1644:	
  4328                           ;incstack = 0
  4329                           ; Regs used in _init_timer2: [wreg]
  4330                           
  4331                           
  4332                           ;timers.c: 7:     T2CKPS0 = 1;
  4333     0E67  1283               	bcf	3,5	;RP0=0, select bank0
  4334     0E68  1303               	bcf	3,6	;RP1=0, select bank0
  4335     0E69  1412               	bsf	18,0	;volatile
  4336                           
  4337                           ;timers.c: 8:     T2CKPS1 = 1;
  4338     0E6A  1492               	bsf	18,1	;volatile
  4339     0E6B                     l1646:
  4340                           
  4341                           ;timers.c: 11:     PR2 = 250;
  4342     0E6B  30FA               	movlw	250
  4343     0E6C  1683               	bsf	3,5	;RP0=1, select bank1
  4344     0E6D  1303               	bcf	3,6	;RP1=0, select bank1
  4345     0E6E  0092               	movwf	18	;volatile
  4346     0E6F                     l1648:
  4347                           
  4348                           ;timers.c: 14:     TMR2IE = 1;
  4349     0E6F  148C               	bsf	12,1	;volatile
  4350     0E70                     l1650:
  4351                           
  4352                           ;timers.c: 17:     TMR2ON = 0;
  4353     0E70  1283               	bcf	3,5	;RP0=0, select bank0
  4354     0E71  1303               	bcf	3,6	;RP1=0, select bank0
  4355     0E72  1112               	bcf	18,2	;volatile
  4356     0E73                     l292:
  4357     0E73  0008               	return
  4358     0E74                     __end_of_init_timer2:
  4359                           
  4360                           	psect	text16
  4361     0E74                     __ptext16:	
  4362 ;; *************** function _init_matrix_keypad *****************
  4363 ;; Defined at:
  4364 ;;		line 13 in file "matrix_keypad.c"
  4365 ;; Parameters:    Size  Location     Type
  4366 ;;		None
  4367 ;; Auto vars:     Size  Location     Type
  4368 ;;		None
  4369 ;; Return value:  Size  Location     Type
  4370 ;;                  1    wreg      void 
  4371 ;; Registers used:
  4372 ;;		wreg, status,2
  4373 ;; Tracked objects:
  4374 ;;		On entry : 0/0
  4375 ;;		On exit  : 0/0
  4376 ;;		Unchanged: 0/0
  4377 ;; Data sizes:     COMMON   BANK0   BANK1   BANK3   BANK2
  4378 ;;      Params:         0       0       0       0       0
  4379 ;;      Locals:         0       0       0       0       0
  4380 ;;      Temps:          0       0       0       0       0
  4381 ;;      Totals:         0       0       0       0       0
  4382 ;;Total ram usage:        0 bytes
  4383 ;; Hardware stack levels used: 1
  4384 ;; Hardware stack levels required when called: 1
  4385 ;; This function calls:
  4386 ;;		Nothing
  4387 ;; This function is called by:
  4388 ;;		_init_config
  4389 ;; This function uses a non-reentrant model
  4390 ;;
  4391                           
  4392     0E74                     _init_matrix_keypad:	
  4393                           ;psect for function _init_matrix_keypad
  4394                           
  4395     0E74                     l1632:	
  4396                           ;incstack = 0
  4397                           ; Regs used in _init_matrix_keypad: [wreg+status,2]
  4398                           
  4399                           
  4400                           ;matrix_keypad.c: 17:     TRISB = TRISB | 0x07;
  4401     0E74  1683               	bsf	3,5	;RP0=1, select bank1
  4402     0E75  1303               	bcf	3,6	;RP1=0, select bank1
  4403     0E76  0806               	movf	6,w	;volatile
  4404     0E77  3807               	iorlw	7
  4405     0E78  0086               	movwf	6	;volatile
  4406                           
  4407                           ;matrix_keypad.c: 21:     TRISD = TRISD & 0xF0;
  4408     0E79  0808               	movf	8,w	;volatile
  4409     0E7A  39F0               	andlw	240
  4410     0E7B  0088               	movwf	8	;volatile
  4411     0E7C                     l1634:
  4412                           
  4413                           ;matrix_keypad.c: 24:     nRBPU = 0;
  4414     0E7C  1381               	bcf	1,7	;volatile
  4415     0E7D                     l1636:
  4416                           
  4417                           ;matrix_keypad.c: 27:     RD3 = 1;
  4418     0E7D  1283               	bcf	3,5	;RP0=0, select bank0
  4419     0E7E  1303               	bcf	3,6	;RP1=0, select bank0
  4420     0E7F  1588               	bsf	8,3	;volatile
  4421     0E80                     l1638:
  4422                           
  4423                           ;matrix_keypad.c: 28:     RD2 = 1;
  4424     0E80  1508               	bsf	8,2	;volatile
  4425     0E81                     l1640:
  4426                           
  4427                           ;matrix_keypad.c: 29:     RD1 = 1;
  4428     0E81  1488               	bsf	8,1	;volatile
  4429     0E82                     l1642:
  4430                           
  4431                           ;matrix_keypad.c: 30:     RD0 = 1;
  4432     0E82  1408               	bsf	8,0	;volatile
  4433     0E83                     l219:
  4434     0E83  0008               	return
  4435     0E84                     __end_of_init_matrix_keypad:
  4436                           
  4437                           	psect	text17
  4438     0E5C                     __ptext17:	
  4439 ;; *************** function _init_clcd *****************
  4440 ;; Defined at:
  4441 ;;		line 44 in file "clcd.c"
  4442 ;; Parameters:    Size  Location     Type
  4443 ;;		None
  4444 ;; Auto vars:     Size  Location     Type
  4445 ;;		None
  4446 ;; Return value:  Size  Location     Type
  4447 ;;                  1    wreg      void 
  4448 ;; Registers used:
  4449 ;;		wreg, status,2, status,0, pclath, cstack
  4450 ;; Tracked objects:
  4451 ;;		On entry : 0/0
  4452 ;;		On exit  : 0/0
  4453 ;;		Unchanged: 0/0
  4454 ;; Data sizes:     COMMON   BANK0   BANK1   BANK3   BANK2
  4455 ;;      Params:         0       0       0       0       0
  4456 ;;      Locals:         0       0       0       0       0
  4457 ;;      Temps:          0       0       0       0       0
  4458 ;;      Totals:         0       0       0       0       0
  4459 ;;Total ram usage:        0 bytes
  4460 ;; Hardware stack levels used: 1
  4461 ;; Hardware stack levels required when called: 3
  4462 ;; This function calls:
  4463 ;;		_init_display_controller
  4464 ;; This function is called by:
  4465 ;;		_init_config
  4466 ;; This function uses a non-reentrant model
  4467 ;;
  4468                           
  4469     0E5C                     _init_clcd:	
  4470                           ;psect for function _init_clcd
  4471                           
  4472     0E5C                     l2368:	
  4473                           ;incstack = 0
  4474                           ; Regs used in _init_clcd: [wreg+status,2+status,0+pclath+cstack]
  4475                           
  4476                           
  4477                           ;clcd.c: 47:     TRISD = 0x00;
  4478     0E5C  1683               	bsf	3,5	;RP0=1, select bank1
  4479     0E5D  1303               	bcf	3,6	;RP1=0, select bank1
  4480     0E5E  0188               	clrf	8	;volatile
  4481     0E5F                     l2370:
  4482                           
  4483                           ;clcd.c: 50:     TRISE2 = 0;
  4484     0E5F  1109               	bcf	9,2	;volatile
  4485     0E60                     l2372:
  4486                           
  4487                           ;clcd.c: 51:     TRISE1 = 0;
  4488     0E60  1089               	bcf	9,1	;volatile
  4489     0E61                     l2374:
  4490                           
  4491                           ;clcd.c: 53:     init_display_controller();
  4492     0E61  120A  158A  279D  120A  158A  	fcall	_init_display_controller
  4493     0E66                     l187:
  4494     0E66  0008               	return
  4495     0E67                     __end_of_init_clcd:
  4496                           
  4497                           	psect	text18
  4498     0F9D                     __ptext18:	
  4499 ;; *************** function _init_display_controller *****************
  4500 ;; Defined at:
  4501 ;;		line 21 in file "clcd.c"
  4502 ;; Parameters:    Size  Location     Type
  4503 ;;		None
  4504 ;; Auto vars:     Size  Location     Type
  4505 ;;		None
  4506 ;; Return value:  Size  Location     Type
  4507 ;;                  1    wreg      void 
  4508 ;; Registers used:
  4509 ;;		wreg, status,2, status,0, pclath, cstack
  4510 ;; Tracked objects:
  4511 ;;		On entry : 0/0
  4512 ;;		On exit  : 0/0
  4513 ;;		Unchanged: 0/0
  4514 ;; Data sizes:     COMMON   BANK0   BANK1   BANK3   BANK2
  4515 ;;      Params:         0       0       0       0       0
  4516 ;;      Locals:         0       0       0       0       0
  4517 ;;      Temps:          2       0       0       0       0
  4518 ;;      Totals:         2       0       0       0       0
  4519 ;;Total ram usage:        2 bytes
  4520 ;; Hardware stack levels used: 1
  4521 ;; Hardware stack levels required when called: 2
  4522 ;; This function calls:
  4523 ;;		_clcd_write
  4524 ;; This function is called by:
  4525 ;;		_init_clcd
  4526 ;; This function uses a non-reentrant model
  4527 ;;
  4528                           
  4529     0F9D                     _init_display_controller:	
  4530                           ;psect for function _init_display_controller
  4531                           
  4532     0F9D                     l2344:	
  4533                           ;incstack = 0
  4534                           ; Regs used in _init_display_controller: [wreg+status,2+status,0+pclath+cstack]
  4535                           
  4536                           
  4537                           ;clcd.c: 24:     _delay((unsigned long)((30)*(20000000/4000.0)));
  4538     0F9D  30C3               	movlw	195
  4539     0F9E  00F7               	movwf	??_init_display_controller+1
  4540     0F9F  30CD               	movlw	205
  4541     0FA0  00F6               	movwf	??_init_display_controller
  4542     0FA1                     u2617:
  4543     0FA1  0BF6               	decfsz	??_init_display_controller,f
  4544     0FA2  2FA1               	goto	u2617
  4545     0FA3  0BF7               	decfsz	??_init_display_controller+1,f
  4546     0FA4  2FA1               	goto	u2617
  4547     0FA5                     l2346:
  4548                           
  4549                           ;clcd.c: 27:     clcd_write(0x33, 0);
  4550     0FA5  01F2               	clrf	clcd_write@mode
  4551     0FA6  3033               	movlw	51
  4552     0FA7  120A  158A  2767  120A  158A  	fcall	_clcd_write
  4553     0FAC                     l2348:
  4554                           
  4555                           ;clcd.c: 28:     _delay((unsigned long)((4100)*(20000000/4000000.0)));
  4556     0FAC  301B               	movlw	27
  4557     0FAD  00F7               	movwf	??_init_display_controller+1
  4558     0FAE  309E               	movlw	158
  4559     0FAF  00F6               	movwf	??_init_display_controller
  4560     0FB0                     u2627:
  4561     0FB0  0BF6               	decfsz	??_init_display_controller,f
  4562     0FB1  2FB0               	goto	u2627
  4563     0FB2  0BF7               	decfsz	??_init_display_controller+1,f
  4564     0FB3  2FB0               	goto	u2627
  4565     0FB4  0000               	nop
  4566                           
  4567                           ;clcd.c: 29:     clcd_write(0x33, 0);
  4568     0FB5  01F2               	clrf	clcd_write@mode
  4569     0FB6  3033               	movlw	51
  4570     0FB7  120A  158A  2767  120A  158A  	fcall	_clcd_write
  4571     0FBC                     l2350:
  4572                           
  4573                           ;clcd.c: 30:     _delay((unsigned long)((100)*(20000000/4000000.0)));
  4574     0FBC  30A6               	movlw	166
  4575     0FBD  00F6               	movwf	??_init_display_controller
  4576     0FBE                     u2637:
  4577     0FBE  0BF6               	decfsz	??_init_display_controller,f
  4578     0FBF  2FBE               	goto	u2637
  4579     0FC0  0000               	nop
  4580     0FC1                     l2352:
  4581                           
  4582                           ;clcd.c: 31:     clcd_write(0x33, 0);
  4583     0FC1  01F2               	clrf	clcd_write@mode
  4584     0FC2  3033               	movlw	51
  4585     0FC3  120A  158A  2767  120A  158A  	fcall	_clcd_write
  4586     0FC8                     l2354:
  4587                           
  4588                           ;clcd.c: 32:     _delay((unsigned long)((1)*(20000000/4000000.0)));
  4589     0FC8  2FC9               	nop2	;2 cycle nop
  4590     0FC9  2FCA               	nop2	;2 cycle nop
  4591     0FCA  0000               	nop
  4592     0FCB                     l2356:
  4593                           
  4594                           ;clcd.c: 34:     clcd_write(0x02, 0);
  4595     0FCB  01F2               	clrf	clcd_write@mode
  4596     0FCC  3002               	movlw	2
  4597     0FCD  120A  158A  2767  120A  158A  	fcall	_clcd_write
  4598     0FD2                     l2358:
  4599                           
  4600                           ;clcd.c: 35:     _delay((unsigned long)((100)*(20000000/4000000.0)));
  4601     0FD2  30A6               	movlw	166
  4602     0FD3  00F6               	movwf	??_init_display_controller
  4603     0FD4                     u2647:
  4604     0FD4  0BF6               	decfsz	??_init_display_controller,f
  4605     0FD5  2FD4               	goto	u2647
  4606     0FD6  0000               	nop
  4607                           
  4608                           ;clcd.c: 36:     clcd_write(0x28, 0);
  4609     0FD7  01F2               	clrf	clcd_write@mode
  4610     0FD8  3028               	movlw	40
  4611     0FD9  120A  158A  2767  120A  158A  	fcall	_clcd_write
  4612     0FDE                     l2360:
  4613                           
  4614                           ;clcd.c: 37:     _delay((unsigned long)((100)*(20000000/4000000.0)));
  4615     0FDE  30A6               	movlw	166
  4616     0FDF  00F6               	movwf	??_init_display_controller
  4617     0FE0                     u2657:
  4618     0FE0  0BF6               	decfsz	??_init_display_controller,f
  4619     0FE1  2FE0               	goto	u2657
  4620     0FE2  0000               	nop
  4621     0FE3                     l2362:
  4622                           
  4623                           ;clcd.c: 38:     clcd_write(0x01, 0);
  4624     0FE3  01F2               	clrf	clcd_write@mode
  4625     0FE4  3001               	movlw	1
  4626     0FE5  120A  158A  2767  120A  158A  	fcall	_clcd_write
  4627                           
  4628                           ;clcd.c: 39:     _delay((unsigned long)((500)*(20000000/4000000.0)));
  4629     0FEA  3004               	movlw	4
  4630     0FEB  00F7               	movwf	??_init_display_controller+1
  4631     0FEC  303D               	movlw	61
  4632     0FED  00F6               	movwf	??_init_display_controller
  4633     0FEE                     u2667:
  4634     0FEE  0BF6               	decfsz	??_init_display_controller,f
  4635     0FEF  2FEE               	goto	u2667
  4636     0FF0  0BF7               	decfsz	??_init_display_controller+1,f
  4637     0FF1  2FEE               	goto	u2667
  4638     0FF2  2FF3               	nop2
  4639     0FF3                     l2364:
  4640                           
  4641                           ;clcd.c: 40:     clcd_write(0x0C, 0);
  4642     0FF3  01F2               	clrf	clcd_write@mode
  4643     0FF4  300C               	movlw	12
  4644     0FF5  120A  158A  2767  120A  158A  	fcall	_clcd_write
  4645     0FFA                     l2366:
  4646                           
  4647                           ;clcd.c: 41:     _delay((unsigned long)((100)*(20000000/4000000.0)));
  4648     0FFA  30A6               	movlw	166
  4649     0FFB  00F6               	movwf	??_init_display_controller
  4650     0FFC                     u2677:
  4651     0FFC  0BF6               	decfsz	??_init_display_controller,f
  4652     0FFD  2FFC               	goto	u2677
  4653     0FFE  0000               	nop
  4654     0FFF                     l184:
  4655     0FFF  0008               	return
  4656     1000                     __end_of_init_display_controller:
  4657                           
  4658                           	psect	text19
  4659     0F67                     __ptext19:	
  4660 ;; *************** function _clcd_write *****************
  4661 ;; Defined at:
  4662 ;;		line 4 in file "clcd.c"
  4663 ;; Parameters:    Size  Location     Type
  4664 ;;  byte            1    wreg     unsigned char 
  4665 ;;  mode            1    2[COMMON] unsigned char 
  4666 ;; Auto vars:     Size  Location     Type
  4667 ;;  byte            1    5[COMMON] unsigned char 
  4668 ;; Return value:  Size  Location     Type
  4669 ;;                  1    wreg      void 
  4670 ;; Registers used:
  4671 ;;		wreg, status,2, status,0
  4672 ;; Tracked objects:
  4673 ;;		On entry : 0/0
  4674 ;;		On exit  : 0/0
  4675 ;;		Unchanged: 0/0
  4676 ;; Data sizes:     COMMON   BANK0   BANK1   BANK3   BANK2
  4677 ;;      Params:         1       0       0       0       0
  4678 ;;      Locals:         1       0       0       0       0
  4679 ;;      Temps:          2       0       0       0       0
  4680 ;;      Totals:         4       0       0       0       0
  4681 ;;Total ram usage:        4 bytes
  4682 ;; Hardware stack levels used: 1
  4683 ;; Hardware stack levels required when called: 1
  4684 ;; This function calls:
  4685 ;;		Nothing
  4686 ;; This function is called by:
  4687 ;;		_clear_screen
  4688 ;;		_init_display_controller
  4689 ;;		_clcd_putch
  4690 ;;		_clcd_print
  4691 ;; This function uses a non-reentrant model
  4692 ;;
  4693                           
  4694     0F67                     _clcd_write:	
  4695                           ;psect for function _clcd_write
  4696                           
  4697                           
  4698                           ;incstack = 0
  4699                           ; Regs used in _clcd_write: [wreg+status,2+status,0]
  4700                           ;clcd_write@byte stored from wreg
  4701     0F67  00F5               	movwf	clcd_write@byte
  4702     0F68                     l2324:
  4703                           
  4704                           ;clcd.c: 4:  void clcd_write(unsigned char byte, unsigned char mode);clcd.c: 5: {;clcd.c
      +                          : 6:     RE2 = (__bit)mode;
  4705     0F68  1872               	btfsc	clcd_write@mode,0
  4706     0F69  2F6B               	goto	u1951
  4707     0F6A  2F6F               	goto	u1950
  4708     0F6B                     u1951:
  4709     0F6B  1283               	bcf	3,5	;RP0=0, select bank0
  4710     0F6C  1303               	bcf	3,6	;RP1=0, select bank0
  4711     0F6D  1509               	bsf	9,2	;volatile
  4712     0F6E  2F72               	goto	u1964
  4713     0F6F                     u1950:
  4714     0F6F  1283               	bcf	3,5	;RP0=0, select bank0
  4715     0F70  1303               	bcf	3,6	;RP1=0, select bank0
  4716     0F71  1109               	bcf	9,2	;volatile
  4717     0F72                     u1964:
  4718     0F72                     l2326:
  4719                           
  4720                           ;clcd.c: 8:     PORTD = byte & 0xF0;
  4721     0F72  0875               	movf	clcd_write@byte,w
  4722     0F73  39F0               	andlw	240
  4723     0F74  0088               	movwf	8	;volatile
  4724     0F75                     l2328:
  4725                           
  4726                           ;clcd.c: 9:     RE1 = 1;
  4727     0F75  1489               	bsf	9,1	;volatile
  4728     0F76                     l2330:
  4729                           
  4730                           ;clcd.c: 10:     _delay((unsigned long)((100)*(20000000/4000000.0)));
  4731     0F76  30A6               	movlw	166
  4732     0F77  00F3               	movwf	??_clcd_write
  4733     0F78                     u2687:
  4734     0F78  0BF3               	decfsz	??_clcd_write,f
  4735     0F79  2F78               	goto	u2687
  4736     0F7A  0000               	nop
  4737     0F7B                     l2332:
  4738                           
  4739                           ;clcd.c: 11:     RE1 = 0;
  4740     0F7B  1283               	bcf	3,5	;RP0=0, select bank0
  4741     0F7C  1303               	bcf	3,6	;RP1=0, select bank0
  4742     0F7D  1089               	bcf	9,1	;volatile
  4743     0F7E                     l2334:
  4744                           
  4745                           ;clcd.c: 13:     PORTD = (unsigned char)((byte & 0x0F) << 4);
  4746     0F7E  0875               	movf	clcd_write@byte,w
  4747     0F7F  390F               	andlw	15
  4748     0F80  00F3               	movwf	??_clcd_write
  4749     0F81  3003               	movlw	3
  4750     0F82                     u1975:
  4751     0F82  1003               	clrc
  4752     0F83  0DF3               	rlf	??_clcd_write,f
  4753     0F84  3EFF               	addlw	-1
  4754     0F85  1D03               	skipz
  4755     0F86  2F82               	goto	u1975
  4756     0F87  1003               	clrc
  4757     0F88  0D73               	rlf	??_clcd_write,w
  4758     0F89  0088               	movwf	8	;volatile
  4759     0F8A                     l2336:
  4760                           
  4761                           ;clcd.c: 14:     RE1 = 1;
  4762     0F8A  1489               	bsf	9,1	;volatile
  4763     0F8B                     l2338:
  4764                           
  4765                           ;clcd.c: 15:     _delay((unsigned long)((100)*(20000000/4000000.0)));
  4766     0F8B  30A6               	movlw	166
  4767     0F8C  00F3               	movwf	??_clcd_write
  4768     0F8D                     u2697:
  4769     0F8D  0BF3               	decfsz	??_clcd_write,f
  4770     0F8E  2F8D               	goto	u2697
  4771     0F8F  0000               	nop
  4772     0F90                     l2340:
  4773                           
  4774                           ;clcd.c: 16:     RE1 = 0;
  4775     0F90  1283               	bcf	3,5	;RP0=0, select bank0
  4776     0F91  1303               	bcf	3,6	;RP1=0, select bank0
  4777     0F92  1089               	bcf	9,1	;volatile
  4778     0F93                     l2342:
  4779                           
  4780                           ;clcd.c: 18:     _delay((unsigned long)((4100)*(20000000/4000000.0)));
  4781     0F93  301B               	movlw	27
  4782     0F94  00F4               	movwf	??_clcd_write+1
  4783     0F95  309E               	movlw	158
  4784     0F96  00F3               	movwf	??_clcd_write
  4785     0F97                     u2707:
  4786     0F97  0BF3               	decfsz	??_clcd_write,f
  4787     0F98  2F97               	goto	u2707
  4788     0F99  0BF4               	decfsz	??_clcd_write+1,f
  4789     0F9A  2F97               	goto	u2707
  4790     0F9B  0000               	nop
  4791     0F9C                     l181:
  4792     0F9C  0008               	return
  4793     0F9D                     __end_of_clcd_write:
  4794                           
  4795                           	psect	text20
  4796     0F32                     __ptext20:	
  4797 ;; *************** function _isr *****************
  4798 ;; Defined at:
  4799 ;;		line 5 in file "isr.c"
  4800 ;; Parameters:    Size  Location     Type
  4801 ;;		None
  4802 ;; Auto vars:     Size  Location     Type
  4803 ;;		None
  4804 ;; Return value:  Size  Location     Type
  4805 ;;                  1    wreg      void 
  4806 ;; Registers used:
  4807 ;;		wreg, status,2, status,0
  4808 ;; Tracked objects:
  4809 ;;		On entry : 0/0
  4810 ;;		On exit  : 0/0
  4811 ;;		Unchanged: 0/0
  4812 ;; Data sizes:     COMMON   BANK0   BANK1   BANK3   BANK2
  4813 ;;      Params:         0       0       0       0       0
  4814 ;;      Locals:         0       0       0       0       0
  4815 ;;      Temps:          2       0       0       0       0
  4816 ;;      Totals:         2       0       0       0       0
  4817 ;;Total ram usage:        2 bytes
  4818 ;; Hardware stack levels used: 1
  4819 ;; This function calls:
  4820 ;;		Nothing
  4821 ;; This function is called by:
  4822 ;;		Interrupt level 1
  4823 ;; This function uses a non-reentrant model
  4824 ;;
  4825                           
  4826     0F32                     _isr:	
  4827                           ;psect for function _isr
  4828                           
  4829     0F32                     i1l2254:
  4830                           
  4831                           ;isr.c: 7:     static unsigned int count = 0;;isr.c: 9:     if (TMR2IF == 1)
  4832     0F32  1283               	bcf	3,5	;RP0=0, select bank0
  4833     0F33  1303               	bcf	3,6	;RP1=0, select bank0
  4834     0F34  1C8C               	btfss	12,1	;volatile
  4835     0F35  2F37               	goto	u190_21
  4836     0F36  2F38               	goto	u190_20
  4837     0F37                     u190_21:
  4838     0F37  2F60               	goto	i1l279
  4839     0F38                     u190_20:
  4840     0F38                     i1l2256:
  4841                           
  4842                           ;isr.c: 10:     {;isr.c: 11:         if (++count == 1250)
  4843     0F38  3001               	movlw	1
  4844     0F39  07B2               	addwf	isr@count,f
  4845     0F3A  1803               	skipnc
  4846     0F3B  0AB3               	incf	isr@count+1,f
  4847     0F3C  3000               	movlw	0
  4848     0F3D  07B3               	addwf	isr@count+1,f
  4849     0F3E  30E2               	movlw	226
  4850     0F3F  0632               	xorwf	isr@count,w
  4851     0F40  3004               	movlw	4
  4852     0F41  1903               	skipnz
  4853     0F42  0633               	xorwf	isr@count+1,w
  4854     0F43  1D03               	btfss	3,2
  4855     0F44  2F46               	goto	u191_21
  4856     0F45  2F47               	goto	u191_20
  4857     0F46                     u191_21:
  4858     0F46  2F5F               	goto	i1l2272
  4859     0F47                     u191_20:
  4860     0F47                     i1l2258:
  4861                           
  4862                           ;isr.c: 12:         {;isr.c: 13:             count = 0;
  4863     0F47  01B2               	clrf	isr@count
  4864     0F48  01B3               	clrf	isr@count+1
  4865     0F49                     i1l2260:
  4866                           
  4867                           ;isr.c: 14:             if(sec > 0)
  4868     0F49  0840               	movf	_sec,w
  4869     0F4A  1903               	btfsc	3,2
  4870     0F4B  2F4D               	goto	u192_21
  4871     0F4C  2F4E               	goto	u192_20
  4872     0F4D                     u192_21:
  4873     0F4D  2F51               	goto	i1l2264
  4874     0F4E                     u192_20:
  4875     0F4E                     i1l2262:
  4876                           
  4877                           ;isr.c: 15:             {;isr.c: 16:                 sec--;
  4878     0F4E  3001               	movlw	1
  4879     0F4F  02C0               	subwf	_sec,f
  4880                           
  4881                           ;isr.c: 17:         }
  4882     0F50  2F5F               	goto	i1l2272
  4883     0F51                     i1l2264:
  4884     0F51  0840               	movf	_sec,w
  4885     0F52  1D03               	btfss	3,2
  4886     0F53  2F55               	goto	u193_21
  4887     0F54  2F56               	goto	u193_20
  4888     0F55                     u193_21:
  4889     0F55  2F5F               	goto	i1l2272
  4890     0F56                     u193_20:
  4891     0F56                     i1l2266:
  4892     0F56  083F               	movf	_min,w
  4893     0F57  1903               	btfsc	3,2
  4894     0F58  2F5A               	goto	u194_21
  4895     0F59  2F5B               	goto	u194_20
  4896     0F5A                     u194_21:
  4897     0F5A  2F5F               	goto	i1l2272
  4898     0F5B                     u194_20:
  4899     0F5B                     i1l2268:
  4900                           
  4901                           ;isr.c: 19:             {;isr.c: 20:                 min--;
  4902     0F5B  3001               	movlw	1
  4903     0F5C  02BF               	subwf	_min,f
  4904     0F5D                     i1l2270:
  4905                           
  4906                           ;isr.c: 21:                 sec = 59;
  4907     0F5D  303B               	movlw	59
  4908     0F5E  00C0               	movwf	_sec
  4909     0F5F                     i1l2272:
  4910                           
  4911                           ;isr.c: 26:         TMR2IF = 0;
  4912     0F5F  108C               	bcf	12,1	;volatile
  4913     0F60                     i1l279:
  4914     0F60  0871               	movf	??_isr+1,w
  4915     0F61  008A               	movwf	10
  4916     0F62  0E70               	swapf	??_isr,w
  4917     0F63  0083               	movwf	3
  4918     0F64  0EFE               	swapf	btemp,f
  4919     0F65  0E7E               	swapf	btemp,w
  4920     0F66  0009               	retfie
  4921     0F67                     __end_of_isr:
  4922     007E                     btemp	set	126	;btemp
  4923     007E                     wtemp0	set	126
  4924                           
  4925                           	psect	intentry
  4926     0004                     __pintentry:	
  4927                           ;incstack = 0
  4928                           ; Regs used in _isr: [wreg+status,2+status,0]
  4929                           
  4930     0004                     interrupt_function:
  4931     007E                     saved_w	set	btemp
  4932     0004  00FE               	movwf	btemp
  4933     0005  0E03               	swapf	3,w
  4934     0006  00F0               	movwf	??_isr
  4935     0007  080A               	movf	10,w
  4936     0008  00F1               	movwf	??_isr+1
  4937     0009  120A  158A  2F32   	ljmp	_isr
  4938                           
  4939                           	psect	config
  4940                           
  4941                           ;Config register CONFIG @ 0x2007
  4942                           ;	Oscillator Selection bits
  4943                           ;	FOSC = 0x3, unprogrammed default
  4944                           ;	Watchdog Timer Enable bit
  4945                           ;	WDTE = OFF, WDT disabled
  4946                           ;	Power-up Timer Enable bit
  4947                           ;	PWRTE = 0x1, unprogrammed default
  4948                           ;	Brown-out Reset Enable bit
  4949                           ;	BOREN = 0x1, unprogrammed default
  4950                           ;	Low-Voltage (Single-Supply) In-Circuit Serial Programming Enable bit
  4951                           ;	LVP = 0x1, unprogrammed default
  4952                           ;	Data EEPROM Memory Code Protection bit
  4953                           ;	CPD = 0x1, unprogrammed default
  4954                           ;	Flash Program Memory Write Enable bits
  4955                           ;	WRT = 0x3, unprogrammed default
  4956                           ;	In-Circuit Debugger Mode bit
  4957                           ;	DEBUG = 0x1, unprogrammed default
  4958                           ;	Flash Program Memory Code Protection bit
  4959                           ;	CP = 0x1, unprogrammed default
  4960     2007                     	org	8199
  4961     2007  3FFB               	dw	16379

Data Sizes:
    Strings     232
    Constant    0
    Data        3
    BSS         15
    Persistent  0
    Stack       0

Auto Spaces:
    Space          Size  Autos    Used
    COMMON           14     11      12
    BANK0            80     18      35
    BANK1            80      0       0
    BANK3            96      0       0
    BANK2            96      0       0

Pointer List with Targets:

    clcd_print@str	PTR const unsigned char  size(1) Largest target is 17
		 -> STR_1(CODE[16]), STR_10(CODE[8]), STR_11(CODE[13]), STR_12(CODE[8]), 
		 -> STR_13(CODE[14]), STR_14(CODE[8]), STR_15(CODE[17]), STR_16(CODE[15]), 
		 -> STR_17(CODE[12]), STR_18(CODE[4]), STR_19(CODE[17]), STR_2(CODE[10]), 
		 -> STR_20(CODE[7]), STR_21(CODE[17]), STR_22(CODE[3]), STR_23(CODE[3]), 
		 -> STR_3(CODE[16]), STR_4(CODE[9]), STR_5(CODE[8]), STR_6(CODE[12]), 
		 -> STR_7(CODE[17]), STR_8(CODE[17]), STR_9(CODE[8]), 


Critical Paths under _main in COMMON

    _time_display_screen->_clcd_putch
    _set_time->_clcd_putch
    _set_temp->_clcd_putch
    _clear_screen->_clcd_write
    ___awmod->___awdiv
    _read_matrix_keypad->_scan_keypad
    _power_on_screen->_clcd_putch
    _clcd_putch->___awdiv
    _menu_display_screen->_clcd_print
    _clcd_print->_clcd_write
    _init_clcd->_init_display_controller
    _init_display_controller->_clcd_write

Critical Paths under _isr in COMMON

    None.

Critical Paths under _main in BANK0

    _main->_set_temp
    _main->_set_time
    _time_display_screen->_clcd_putch
    _set_time->_clcd_putch
    _set_temp->_clcd_putch
    _power_on_screen->_clcd_putch
    _clcd_putch->___awmod

Critical Paths under _isr in BANK0

    None.

Critical Paths under _main in BANK1

    None.

Critical Paths under _isr in BANK1

    None.

Critical Paths under _main in BANK3

    None.

Critical Paths under _isr in BANK3

    None.

Critical Paths under _main in BANK2

    None.

Critical Paths under _isr in BANK2

    None.

Call Graph Tables:

 ---------------------------------------------------------------------------------
 (Depth) Function   	        Calls       Base Space   Used Autos Params    Refs
 ---------------------------------------------------------------------------------
 (0) _main                                                 6     6      0   54093
                                             12 BANK0      6     6      0
                         _clcd_print
                       _clear_screen
                        _init_config
                _menu_display_screen
                    _power_on_screen
                 _read_matrix_keypad
                           _set_temp
                           _set_time
                _time_display_screen
 ---------------------------------------------------------------------------------
 (1) _time_display_screen                                  3     3      0   11342
                                              7 BANK0      3     3      0
                            ___awdiv
                            ___awmod
                         _clcd_print
                         _clcd_putch
                       _clear_screen
 ---------------------------------------------------------------------------------
 (1) _set_time                                             5     3      2   12183
                                              7 BANK0      5     3      2
                            ___awdiv
                            ___awmod
                             ___bmul
                         _clcd_print
                         _clcd_putch
                       _clear_screen
 ---------------------------------------------------------------------------------
 (1) _set_temp                                             5     3      2   11972
                                              7 BANK0      5     3      2
                            ___awdiv
                            ___awmod
                             ___bmul
                         _clcd_print
                         _clcd_putch
                       _clear_screen
 ---------------------------------------------------------------------------------
 (2) _clear_screen                                         2     2      0    1173
                                              6 COMMON     2     2      0
                         _clcd_write
 ---------------------------------------------------------------------------------
 (2) ___bmul                                               3     2      1     320
                                              2 COMMON     3     2      1
 ---------------------------------------------------------------------------------
 (2) ___awmod                                              6     2      4    1873
                                              0 BANK0      6     2      4
                            ___awdiv (ARG)
 ---------------------------------------------------------------------------------
 (2) ___awdiv                                              8     4      4    1364
                                              2 COMMON     8     4      4
 ---------------------------------------------------------------------------------
 (1) _read_matrix_keypad                                   2     2      0     272
                                              4 COMMON     2     2      0
                        _scan_keypad
 ---------------------------------------------------------------------------------
 (2) _scan_keypad                                          2     2      0     161
                                              2 COMMON     2     2      0
 ---------------------------------------------------------------------------------
 (1) _power_on_screen                                      4     4      0    7130
                                              7 BANK0      4     4      0
                         _clcd_print
                         _clcd_putch
 ---------------------------------------------------------------------------------
 (2) _clcd_putch                                           2     1      1    2765
                                             10 COMMON     1     1      0
                                              6 BANK0      1     0      1
                            ___awdiv (ARG)
                            ___awmod (ARG)
                         _clcd_write
 ---------------------------------------------------------------------------------
 (1) _menu_display_screen                                  0     0      0    4167
                         _clcd_print
 ---------------------------------------------------------------------------------
 (2) _clcd_print                                           2     1      1    4167
                                              6 COMMON     2     1      1
                         _clcd_write
 ---------------------------------------------------------------------------------
 (1) _init_config                                          0     0      0    1173
                          _init_clcd
                 _init_matrix_keypad
                        _init_timer2
 ---------------------------------------------------------------------------------
 (2) _init_timer2                                          0     0      0       0
 ---------------------------------------------------------------------------------
 (2) _init_matrix_keypad                                   0     0      0       0
 ---------------------------------------------------------------------------------
 (2) _init_clcd                                            0     0      0    1173
            _init_display_controller
 ---------------------------------------------------------------------------------
 (3) _init_display_controller                              2     2      0    1173
                                              6 COMMON     2     2      0
                         _clcd_write
 ---------------------------------------------------------------------------------
 (3) _clcd_write                                           4     3      1    1173
                                              2 COMMON     4     3      1
 ---------------------------------------------------------------------------------
 Estimated maximum stack depth 3
 ---------------------------------------------------------------------------------
 (Depth) Function   	        Calls       Base Space   Used Autos Params    Refs
 ---------------------------------------------------------------------------------
 (5) _isr                                                  2     2      0       0
                                              0 COMMON     2     2      0
 ---------------------------------------------------------------------------------
 Estimated maximum stack depth 5
 ---------------------------------------------------------------------------------

 Call Graph Graphs:

 _main (ROOT)
   _clcd_print
     _clcd_write
   _clear_screen
     _clcd_write
   _init_config
     _init_clcd
       _init_display_controller
         _clcd_write
     _init_matrix_keypad
     _init_timer2
   _menu_display_screen
     _clcd_print
   _power_on_screen
     _clcd_print
     _clcd_putch
       ___awdiv (ARG)
       ___awmod (ARG)
         ___awdiv (ARG)
       _clcd_write (ARG)
   _read_matrix_keypad
     _scan_keypad
   _set_temp
     ___awdiv
     ___awmod
     ___bmul
     _clcd_print
     _clcd_putch
     _clear_screen
   _set_time
     ___awdiv
     ___awmod
     ___bmul
     _clcd_print
     _clcd_putch
     _clear_screen
   _time_display_screen
     ___awdiv
     ___awmod
     _clcd_print
     _clcd_putch
     _clear_screen

 _isr (ROOT)

 Address spaces:
Name               Size   Autos  Total    Cost      Usage
BANK3               60      0       0       9        0.0%
BITBANK3            60      0       0       8        0.0%
SFR3                 0      0       0       4        0.0%
BITSFR3              0      0       0       4        0.0%
BANK2               60      0       0      11        0.0%
BITBANK2            60      0       0      10        0.0%
SFR2                 0      0       0       5        0.0%
BITSFR2              0      0       0       5        0.0%
BANK1               50      0       0       7        0.0%
BITBANK1            50      0       0       6        0.0%
SFR1                 0      0       0       2        0.0%
BITSFR1              0      0       0       2        0.0%
BANK0               50     12      23       5       43.8%
BITBANK0            50      0       0       4        0.0%
SFR0                 0      0       0       1        0.0%
BITSFR0              0      0       0       1        0.0%
COMMON               E      B       C       1       85.7%
BITCOMMON            E      0       0       0        0.0%
CODE                 0      0       0       0        0.0%
DATA                 0      0      2F      12        0.0%
ABS                  0      0      2F       3        0.0%
NULL                 0      0       0       0        0.0%
STACK                0      0       0       2        0.0%
EEDATA             100      0       0       0        0.0%


Microchip Technology PIC Macro Assembler V2.45 build 20230818022343 
Symbol Table                                                                                   Sat Oct 07 20:35:17 2023

                              pc 0002                   ___bmul@product 0073                   clcd_print@addr 0076  
                             l53 0EC5                               l61 0209                               l91 02B3  
                             l92 02B6                               l98 06C0                     ___awdiv@sign 0077  
                             fsr 0004               _init_matrix_keypad 0E74                              l101 0E94  
                            l111 0EE6                              l108 07E6                              l135 0190  
                            l240 073F                              l232 0708                              l224 06D9  
                            l241 074B                              l233 0710                              l225 06E1  
                            l242 0745                              l234 071C                              l226 077B  
                            l219 0E83                              l235 0716                              l227 06ED  
                            l228 06E7                              l404 07FB                              l164 043C  
                            l181 0F9C                              l190 0EA7                              l246 0766  
                            l247 076E                              l239 0737                              l184 0FFF  
                            l249 0774                              l257 0F09                              l187 0E66  
                            l531 04A3                              l292 0E73                              l196 0F31  
                            l544 04FE                              _GIE 005F                              _RB0 0030  
                            _RB1 0031                              _RB2 0032                              _RC1 0039  
                            _RC2 003A                              _RD0 0040                              _RD1 0041  
                            _RD2 0042                              _RE1 0049                              _RD3 0043  
                            _RE2 004A                              _PR2 0092                              _min 003F  
                            _sec 0040                              _isr 0F32                   clcd_putch@addr 0026  
                            fsr0 0004                   clcd_putch@data 007A                     ___awmod@sign 0025  
            ?_init_matrix_keypad 0070                             l2400 04B6                             l2330 0F76  
                           l2410 04CF                             l2402 04BB                             l2340 0F90  
                           l2332 0F7B                             l2324 0F68                             l2412 04D3  
                           l2404 04C1                             l2420 04F0                             l2500 033C  
                           l2342 0F93                             l2334 0F7E                             l2326 0F72  
                           l2350 0FBC                             l2430 0EB2                             l1710 071A  
                           l2422 04F5                             l2414 04DD                             l2406 04C4  
                           l2502 033E                             l2510 0359                             l2336 0F8A  
                           l2328 0F75                             l2360 0FDE                             l2352 0FC1  
                           l2344 0F9D                             l1640 0E81                             l1632 0E74  
                           l2440 0EC4                             l2432 0EB5                             l1720 0724  
                           l1704 0714                             l1800 0456                             l2424 04FA  
                           l2416 04E3                             l2408 04CB                             l2600 00AC  
                           l2520 036D                             l2512 035F                             l2504 0344  
                           l2338 0F8B                             l2362 0FE3                             l2354 0FC8  
                           l2346 0FA5                             l2370 0E5F                             l1642 0E82  
                           l1634 0E7C                             l1650 0E70                             l2434 0EB8  
                           l2450 0788                             l2442 077C                             l1730 0743  
                           l1722 072A                             l1714 0720                             l1810 046C  
                           l1802 0458                             l2418 04EA                             l2610 0105  
                           l2602 00AF                             l2530 0382                             l2514 0364  
                           l2522 0370                             l2506 034A                             l2364 0FF3  
                           l2356 0FCB                             l2348 0FAC                             l2372 0E60  
                           l1636 0E7D                             l1644 0E67                             l2436 0EBB  
                           l2428 0EA8                             l2380 0F0B                             l2452 0796  
                           l1740 074F                             l1724 073D                             l1820 048F  
                           l1812 0470                             l1804 045E                             l2620 0138  
                           l2604 00B2                             l2612 0108                             l2540 03B3  
                           l2524 0376                             l2516 0367                             l2508 0356  
                           l2532 0383                             l2700 01F8                             l2366 0FFA  
                           l2358 0FD2                             l2374 0E61                             l1638 0E80  
                           l1646 0E6B                             l2438 0EC3                             l2382 0F13  
                           l2470 07D2                             l2454 079C                             l1750 076C  
                           l1670 06CB                             l1814 0481                             l1806 0461  
                           l1822 0495                             l2390 04A4                             l2622 0164  
                           l2614 0115                             l2606 00F9                             l2542 03D0  
                           l2534 0390                             l2526 037B                             l2518 036C  
                           l2630 05F6                             l2710 0202                             l2702 01FA  
                           l2368 0E5C                             l1648 0E6F                             l2384 0F21  
                           l2472 07D8                             l2464 07B5                             l2456 07A2  
                           l2448 077F                             l1736 0749                             l1672 06DF  
                           l1904 0F01                             l1824 049A                             l1816 0487  
                           l1808 0468                             l2392 04A7                             l2376 0E84  
                           l2616 0117                             l2624 0181                             l2608 0100  
                           l2552 041A                             l2544 03DA                             l2536 0392  
                           l2528 0381                             l2480 02F9                             l2640 0670  
                           l2632 0611                             l2720 0220                             l2704 01FB  
                           l2712 020A                             l2386 0F25                             l2474 0EC6  
                           l2466 07BE                             l2458 07B2                             l1762 0778  
                           l1746 0753                             l1666 06C1                             l1906 0F06  
                           l1826 049F                             l1818 0488                             l2394 04AB  
                           l1770 07E8                             l2378 0E8B                             l2626 0188  
                           l2618 011F                             l2570 0046                             l2554 0423  
                           l2546 03F5                             l2538 039A                             l2490 031B  
                           l2482 02FB                             l2650 0694                             l2642 0678  
                           l2634 062E                             l2730 0239                             l2722 0224  
                           l2714 0211                             l2706 01FC                             l2388 0E96  
                           l2468 07CC                             l1756 0772                             l1748 0759  
                           l1684 06EB                             l1668 06C7                             l1908 0F08  
                           l2396 04B0                             l1780 07F5                             l1772 07E9  
                           l2580 006C                             l2572 004E                             l2564 0037  
                           l2548 0412                             l2492 0321                             l2484 0303  
                           l2476 02EB                             l2660 06B7                             l2652 0699  
                           l2644 0680                             l2636 0638                             l2628 05EE  
                           l2716 0217                             l2724 0228                             l2708 01FD  
                           l1766 077A                             l1694 06F5                             l1678 06E5  
                           l1790 0442                             l2398 04B2                             l1782 07FA  
                           l1774 07ED                             l2590 008E                             l2582 0071  
                           l2574 0056                             l2566 003E                             l2558 042C  
                           l2494 0326                             l2486 030B                             l2478 02F2  
                           l2662 06BA                             l2654 06A1                             l2646 0688  
                           l2638 0653                             l2750 0265                             l2742 024E  
                           l2726 022E                             l2718 021A                             l2734 023E  
                           l2670 0196                             l1696 06FB                             l1688 06F1  
                           l1792 0447                             l1776 07F1                             l2592 0091  
                           l2584 0075                             l2568 0044                             l2576 005E  
                           l2496 032A                             l2488 0313                             l2664 06BB  
                           l2656 06A4                             l2648 068F                             l2760 0291  
                           l2752 0270                             l2744 0253                             l2736 0245  
                           l2728 0233                             l2680 01B8                             l2672 019F  
                           l1698 070E                             l1882 0EE8                             l1794 0449  
                           l1786 043D                             l1778 07F3                             l2594 0097  
                           l2586 007B                             l2578 0066                             l2498 0330  
                           l2666 06BC                             l2658 06B2                             l2834 02C4  
                           l2770 02B8                             l2762 0296                             l2754 027B  
                           l2746 0259                             l2738 024B                             l2682 01C0  
                           l2674 01A6                             l1892 0EF5                             l1884 0EEE  
                           l1796 044D                             l1788 043E                             l2596 009C  
                           l2588 0088                             l2836 0434                             l2756 0280  
                           l2764 029D                             l2748 025F                             l2692 01E3  
                           l2684 01CE                             l2676 01AB                             l2668 0191  
                           l1894 0EFA                             l1886 0EF3                             l1798 0452  
                           l2598 00A4                             l2766 02A2                             l2758 028A  
                           l2694 01E9                             l2774 02BD                             l2678 01B3  
                           l2686 01D4                             l1896 0EFF                             l2768 02AD  
                           l2776 02DE                             l2688 01DA                             l2698 01F2  
                           ?_isr 0070                             STR_1 054A                             STR_2 05AC  
                           STR_3 055A                             STR_4 05B6                             STR_5 05D7  
                           STR_6 05A0                             STR_7 0506                             STR_8 0517  
                           STR_9 05CF                             u1100 0737                             u1020 06D9  
                           u1101 0736                             u1021 06D8                             u1110 073D  
                           u1030 06DF                             u1111 073C                             u1031 06DE  
                           u1120 0743                             u1040 06E5                             u1200 0442  
                           u2000 04B6                             u1121 0742                             u1105 0733  
                           u1041 06E4                             u1201 0441                             u2001 04B5  
                           u1130 0749                             u1050 06EB                             u1210 044D  
                           u2010 04C1                             u1131 0748                             u1051 06EA  
                           u1211 044C                             u2011 04C0                             u1140 0766  
                           u1060 0708                             u1220 045E                             u2100 02F2  
                           u1141 0765                             u1061 0707                             u1221 045D  
                           u2101 02F1                             u1150 076C                             u1070 070E  
                           u2030 04D3                             u2110 031B                             u1151 076B  
                           u1071 070D                             u2031 04D2                             u2111 031A  
                           u1160 0772                             u1080 0714                             u1400 0EFA  
                           u1240 0470                             u2040 04DD                             u2200 0376  
                           u2120 0321                             u1161 0771                             u1145 0762  
                           u1081 0713                             u1065 0704                             u1401 0EF9  
                           u1241 046F                             u2041 04DC                             u2025 04C5  
                           u2201 0375                             u2121 0320                             u1170 0778  
                           u1090 071A                             u1410 0EFF                             u2210 0390  
                           u2130 0326                             u1171 0777                             u1091 0719  
                           u1411 0EFE                             u1235 0462                             u2211 038F  
                           u2131 0325                             u1420 0F06                             u1260 0481  
                           u2060 04F0                             u1180 07ED                             u2300 008E  
                           u2220 0398                             u2140 0330                             u1421 0F05  
                           u1261 0480                             u2061 04EF                             u2045 04D9  
                           u1181 07EC                             u2301 008D                             u2221 0396  
                           u2141 032F                             u2070 04F5                             u1190 07FA  
                           u2310 0097                             u2230 0399                             u2150 0344  
                           u1255 0471                             u2071 04F4                             u2055 04E4  
                           u1191 07F9                             u2311 0096                             u2151 0343  
                           u2080 07A2                             u1280 0495                             u2320 0100  
                           u2240 0419                             u2160 034A                             u2400 01A6  
                           u2081 07A1                             u1281 0494                             u1265 047D  
                           u2321 00FF                             u2241 0418                             u2161 0349  
                           u2401 01A5                             u2090 07D8                             u1290 049A  
                           u2330 0105                             u2250 003E                             u2170 035F  
                           u2410 01AB                             u2091 07D7                             u1291 0499  
                           u1275 0489                             u2331 0104                             u2251 003D  
                           u2171 035E                             u2411 01AA                             u2340 0115  
                           u2260 0066                             u2180 0364                             u2500 0245  
                           u2420 01DA                             u2341 0114                             u2261 0065  
                           u2181 0363                             u2501 0244                             u2421 01D9  
                           u1390 0EF3                             u2350 011D                             u2270 006C  
                           u2190 036C                             u2510 024B                             u2430 01E9  
                           u1391 0EF2                             u2351 011B                             u2271 006B  
                           u2191 036B                             u2511 024A                             u2431 01E8  
                           u2360 011E                             u2280 0071                             u2520 0280  
                           u2440 01F8                             u2281 0070                             u2521 027F  
                           u2441 01F7                             u2370 0188                             u2290 007B  
                           u2530 0291                             u2450 0211                             u2371 0187  
                           u2291 007A                             u2531 0290                             u2451 0210  
                           u2380 068F                             u2540 02A2                             u2460 0217  
                           u2381 068E                             u2541 02A1                             u2461 0216  
                           u2390 0694                             u2470 0220                             u2607 07E0  
                           u2391 0693                             u2471 021F                             u2480 022E  
                           u2617 0FA1                             u2481 022D                             u2490 0239  
                           u2707 0F97                             u2627 0FB0                             u2491 0238  
                           u2637 0FBE                             u2557 01C8                             u1950 0F6F  
                           u1951 0F6B                             u2647 0FD4                             u2567 06AC  
                           u2657 0FE0                             u2577 0E8F                             u2667 0FEE  
                           u2587 0790                             _PEIE 005E                             u1964 0F72  
                           u1980 0F31                             u2677 0FFC                             u1981 0F30  
                           u2597 07C6                             u1990 04AB                             u1975 0F82  
                           u2687 0F78                             u1991 04AA                             u2697 0F8D  
                           _flag 003E                             _main 0191                             btemp 007E  
            _menu_display_screen 0EC6                             start 000C                ___bmul@multiplier 0074  
           ??_init_matrix_keypad 0072                   clcd_write@byte 0075                   clcd_write@mode 0072  
        __end_of_power_on_screen 07E7                            ??_isr 0070                            ?_main 0070  
                __end_of___awdiv 04A4                            STR_10 05C7                            STR_11 0587  
                          STR_20 05E7                            STR_12 05DF                            STR_21 0539  
                          STR_13 0579                            STR_22 0514                            STR_14 05BF  
                          STR_23 0514                            STR_15 0539                            STR_16 056A  
                          STR_17 0594                            STR_18 0513                            STR_19 0528  
                __end_of___awmod 04FF                  ___awdiv@divisor 0072                            i1l279 0F60  
                   ?_init_config 0070             ?_menu_display_screen 0070                  ___awdiv@counter 0076  
                          _PORTD 0008                            _TRISB 0086                            _TRISD 0088  
                   ?_init_timer2 0070             __end_of_clear_screen 0E95                            _nRBPU 040F  
             _read_matrix_keypad 0EE7                            pclath 000A              ?_read_matrix_keypad 0070  
                          status 0003                            wtemp0 007E                     ?_scan_keypad 0070  
                __initialization 000F                     __end_of_main 02E8             ??_read_matrix_keypad 0074  
                         ??_main 002C            ??_menu_display_screen 0078                 ___awdiv@dividend 0074  
                         i1l2260 0F49                           i1l2270 0F5D                           i1l2262 0F4E  
                         i1l2254 0F32                           i1l2264 0F51                           i1l2272 0F5F  
                         i1l2256 0F38                           i1l2266 0F56                           i1l2258 0F47  
                         i1l2268 0F5B                           u190_20 0F38                           u190_21 0F37  
                         u191_20 0F47                           u191_21 0F46                           u192_20 0F4E  
                         u192_21 0F4D                           u193_20 0F56                           u193_21 0F55  
                         u194_20 0F5B                           u194_21 0F5A                           _TMR2IE 0461  
                         _TMR2IF 0061                           _TMR2ON 0092                           _TRISC1 0439  
                         _TRISC2 043A                           _TRISE1 0449                           _TRISE2 044A  
                         ___bmul 07E7          _init_display_controller 0F9D                        ??___awdiv 0076  
               ?_power_on_screen 0070                        ??___awmod 007A                 ___awdiv@quotient 0078  
                ___awmod@divisor 0020                  ___awmod@counter 0024                     __pdataCOMMON 007B  
               __end_of_set_temp 0191                 __end_of_set_time 043D                           saved_w 007E  
        __end_of__initialization 0030              ___bmul@multiplicand 0072                   __pcstackCOMMON 0070  
                   __pidataBANK0 07FC              _time_display_screen 05EE                       __pbssBANK0 0032  
      ??_init_display_controller 0076                       _clcd_print 0F0A                       _clcd_putch 0E95  
                     _clcd_write 0F67                       __pmaintext 0191                     _clear_screen 0E84  
                        ?___bmul 0072             ?_time_display_screen 0070                       __pintentry 0004  
                        _T2CKPS0 0090                          _T2CKPS1 0091                       __stringtab 0500  
                      ?_set_temp 0027                        ?_set_time 0027            ??_time_display_screen 0027  
                        ___awdiv 043D                          ___awmod 04A4                          __ptext1 05EE  
                        __ptext2 02E8                          __ptext3 0034                          __ptext4 0E84  
                        __ptext5 07E7                          __ptext6 04A4                          __ptext7 043D  
                        __ptext8 0EE7                          __ptext9 06C1  __end_of_init_display_controller 1000  
              __end_of_init_clcd 0E67                 ___awmod@dividend 0022                   main@reset_flag 002F  
                        main@key 0031             end_of_initialization 0030                      set_temp@key 002B  
                    set_time@key 002B                   _operation_flag 0041                      ?_clcd_print 0076  
                    ?_clcd_putch 0026                      ?_clcd_write 0072                       ??_set_temp 0029  
                     ??_set_time 0029      __end_of_menu_display_screen 0EE7                    clcd_print@str 0077  
             set_temp@reset_flag 0027                   __end_of___bmul 07FC                    __pidataCOMMON 07FE  
            start_initialization 000F                     scan_keypad@i 0072           read_matrix_keypad@mode 0074  
         read_matrix_keypad@once 007B                      __end_of_isr 0F67                         ??___bmul 0073  
                    __pdataBANK0 0041                    ??_init_config 0078                    ??_init_timer2 0072  
                      ___latbits 0002                    __pcstackBANK0 0020                    ??_scan_keypad 0072  
                       ?___awdiv 0072                         ?___awmod 0020                        __pstrings 0500  
             set_time@reset_flag 0027                        _init_clcd 0E5C              __end_of_init_config 0EC6  
              ??_power_on_screen 0027              __end_of_init_timer2 0E74         ?_init_display_controller 0070  
              interrupt_function 0004      __end_of_time_display_screen 06C1                     ??_clcd_print 0077  
                   ??_clcd_putch 007A       __end_of_init_matrix_keypad 0E84                     ??_clcd_write 0073  
              set_temp@key_count 003D              __end_of_scan_keypad 077C                      __stringbase 0505  
             __end_of_clcd_print 0F32               __end_of_clcd_putch 0EA8               __end_of_clcd_write 0F9D  
                     ?_init_clcd 0070            read_matrix_keypad@key 0075                set_time@blink_pos 0039  
                  set_temp@blink 003C                    set_time@blink 0038       __end_of_read_matrix_keypad 0F0A  
             __end_of__stringtab 0506                set_time@key_count 003A                      _init_config 0EA8  
                    _init_timer2 0E67                         __ptext10 077C                         __ptext11 0E95  
                       __ptext20 0F32                         __ptext12 0EC6                         __ptext13 0F0A  
                       __ptext14 0EA8                         __ptext15 0E67                         __ptext16 0E74  
                       __ptext17 0E5C                         __ptext18 0F9D                         __ptext19 0F67  
                    _scan_keypad 06C1                    ?_clear_screen 0070                         _set_temp 0034  
                       _set_time 02E8                         isr@count 0032                     set_temp@temp 003B  
                   set_temp@wait 0036                     set_time@wait 0034                      ??_init_clcd 0078  
                       intlevel1 0000                        stringcode 0500                   ??_clear_screen 0076  
                _power_on_screen 077C                         stringdir 0500                         stringtab 0500  
               power_on_screen@i 002A  
